
micromouse.elf:     file format elf32-avr

Sections:
Idx Name          Size      VMA       LMA       File off  Algn
  0 .text         00002f9e  00000000  00000000  00000094  2**1
                  CONTENTS, ALLOC, LOAD, READONLY, CODE
  1 .data         00000068  00802000  00002f9e  00003032  2**0
                  CONTENTS, ALLOC, LOAD, DATA
  2 .bss          00000e7b  00802068  00802068  0000309a  2**0
                  ALLOC
  3 .comment      0000005c  00000000  00000000  0000309a  2**0
                  CONTENTS, READONLY
  4 .note.gnu.avr.deviceinfo 00000040  00000000  00000000  000030f8  2**2
                  CONTENTS, READONLY
  5 .debug_aranges 00000338  00000000  00000000  00003138  2**0
                  CONTENTS, READONLY, DEBUGGING
  6 .debug_info   0000a347  00000000  00000000  00003470  2**0
                  CONTENTS, READONLY, DEBUGGING
  7 .debug_abbrev 0000450b  00000000  00000000  0000d7b7  2**0
                  CONTENTS, READONLY, DEBUGGING
  8 .debug_line   00003a97  00000000  00000000  00011cc2  2**0
                  CONTENTS, READONLY, DEBUGGING
  9 .debug_frame  00000c64  00000000  00000000  0001575c  2**2
                  CONTENTS, READONLY, DEBUGGING
 10 .debug_str    000216d7  00000000  00000000  000163c0  2**0
                  CONTENTS, READONLY, DEBUGGING
 11 .debug_loc    00003271  00000000  00000000  00037a97  2**0
                  CONTENTS, READONLY, DEBUGGING
 12 .debug_ranges 000002f0  00000000  00000000  0003ad08  2**0
                  CONTENTS, READONLY, DEBUGGING
 13 .debug_macro  000085e3  00000000  00000000  0003aff8  2**0
                  CONTENTS, READONLY, DEBUGGING

Disassembly of section .text:

00000000 <__vectors>:
       0:	17 c1       	rjmp	.+558    	; 0x230 <__ctors_end>
       2:	00 00       	nop
       4:	0c 94 46 0a 	jmp	0x148c	; 0x148c <__vector_1>
       8:	34 c1       	rjmp	.+616    	; 0x272 <__bad_interrupt>
       a:	00 00       	nop
       c:	32 c1       	rjmp	.+612    	; 0x272 <__bad_interrupt>
       e:	00 00       	nop
      10:	30 c1       	rjmp	.+608    	; 0x272 <__bad_interrupt>
      12:	00 00       	nop
      14:	2e c1       	rjmp	.+604    	; 0x272 <__bad_interrupt>
      16:	00 00       	nop
      18:	2c c1       	rjmp	.+600    	; 0x272 <__bad_interrupt>
      1a:	00 00       	nop
      1c:	2a c1       	rjmp	.+596    	; 0x272 <__bad_interrupt>
      1e:	00 00       	nop
      20:	28 c1       	rjmp	.+592    	; 0x272 <__bad_interrupt>
      22:	00 00       	nop
      24:	26 c1       	rjmp	.+588    	; 0x272 <__bad_interrupt>
      26:	00 00       	nop
      28:	24 c1       	rjmp	.+584    	; 0x272 <__bad_interrupt>
      2a:	00 00       	nop
      2c:	22 c1       	rjmp	.+580    	; 0x272 <__bad_interrupt>
      2e:	00 00       	nop
      30:	20 c1       	rjmp	.+576    	; 0x272 <__bad_interrupt>
      32:	00 00       	nop
      34:	1e c1       	rjmp	.+572    	; 0x272 <__bad_interrupt>
      36:	00 00       	nop
      38:	1c c1       	rjmp	.+568    	; 0x272 <__bad_interrupt>
      3a:	00 00       	nop
      3c:	1a c1       	rjmp	.+564    	; 0x272 <__bad_interrupt>
      3e:	00 00       	nop
      40:	18 c1       	rjmp	.+560    	; 0x272 <__bad_interrupt>
      42:	00 00       	nop
      44:	16 c1       	rjmp	.+556    	; 0x272 <__bad_interrupt>
      46:	00 00       	nop
      48:	14 c1       	rjmp	.+552    	; 0x272 <__bad_interrupt>
      4a:	00 00       	nop
      4c:	12 c1       	rjmp	.+548    	; 0x272 <__bad_interrupt>
      4e:	00 00       	nop
      50:	0c 94 14 09 	jmp	0x1228	; 0x1228 <__vector_20>
      54:	0e c1       	rjmp	.+540    	; 0x272 <__bad_interrupt>
      56:	00 00       	nop
      58:	0c c1       	rjmp	.+536    	; 0x272 <__bad_interrupt>
      5a:	00 00       	nop
      5c:	0a c1       	rjmp	.+532    	; 0x272 <__bad_interrupt>
      5e:	00 00       	nop
      60:	08 c1       	rjmp	.+528    	; 0x272 <__bad_interrupt>
      62:	00 00       	nop
      64:	06 c1       	rjmp	.+524    	; 0x272 <__bad_interrupt>
      66:	00 00       	nop
      68:	04 c1       	rjmp	.+520    	; 0x272 <__bad_interrupt>
      6a:	00 00       	nop
      6c:	02 c1       	rjmp	.+516    	; 0x272 <__bad_interrupt>
      6e:	00 00       	nop
      70:	00 c1       	rjmp	.+512    	; 0x272 <__bad_interrupt>
      72:	00 00       	nop
      74:	fe c0       	rjmp	.+508    	; 0x272 <__bad_interrupt>
      76:	00 00       	nop
      78:	fc c0       	rjmp	.+504    	; 0x272 <__bad_interrupt>
      7a:	00 00       	nop
      7c:	fa c0       	rjmp	.+500    	; 0x272 <__bad_interrupt>
      7e:	00 00       	nop
      80:	f8 c0       	rjmp	.+496    	; 0x272 <__bad_interrupt>
      82:	00 00       	nop
      84:	f6 c0       	rjmp	.+492    	; 0x272 <__bad_interrupt>
      86:	00 00       	nop
      88:	f4 c0       	rjmp	.+488    	; 0x272 <__bad_interrupt>
      8a:	00 00       	nop
      8c:	f2 c0       	rjmp	.+484    	; 0x272 <__bad_interrupt>
      8e:	00 00       	nop
      90:	f0 c0       	rjmp	.+480    	; 0x272 <__bad_interrupt>
      92:	00 00       	nop
      94:	ee c0       	rjmp	.+476    	; 0x272 <__bad_interrupt>
      96:	00 00       	nop
      98:	ec c0       	rjmp	.+472    	; 0x272 <__bad_interrupt>
      9a:	00 00       	nop
      9c:	fa c6       	rjmp	.+3572   	; 0xe92 <__vector_39>
      9e:	00 00       	nop
      a0:	0e c7       	rjmp	.+3612   	; 0xebe <__vector_40>
      a2:	00 00       	nop
      a4:	22 c7       	rjmp	.+3652   	; 0xeea <__vector_41>
      a6:	00 00       	nop
      a8:	36 c7       	rjmp	.+3692   	; 0xf16 <__vector_42>
      aa:	00 00       	nop
      ac:	e2 c0       	rjmp	.+452    	; 0x272 <__bad_interrupt>
      ae:	00 00       	nop
      b0:	e0 c0       	rjmp	.+448    	; 0x272 <__bad_interrupt>
      b2:	00 00       	nop
      b4:	de c0       	rjmp	.+444    	; 0x272 <__bad_interrupt>
      b6:	00 00       	nop
      b8:	dc c0       	rjmp	.+440    	; 0x272 <__bad_interrupt>
      ba:	00 00       	nop
      bc:	da c0       	rjmp	.+436    	; 0x272 <__bad_interrupt>
      be:	00 00       	nop
      c0:	d8 c0       	rjmp	.+432    	; 0x272 <__bad_interrupt>
      c2:	00 00       	nop
      c4:	d6 c0       	rjmp	.+428    	; 0x272 <__bad_interrupt>
      c6:	00 00       	nop
      c8:	d4 c0       	rjmp	.+424    	; 0x272 <__bad_interrupt>
      ca:	00 00       	nop
      cc:	d2 c0       	rjmp	.+420    	; 0x272 <__bad_interrupt>
      ce:	00 00       	nop
      d0:	d0 c0       	rjmp	.+416    	; 0x272 <__bad_interrupt>
      d2:	00 00       	nop
      d4:	ce c0       	rjmp	.+412    	; 0x272 <__bad_interrupt>
      d6:	00 00       	nop
      d8:	cc c0       	rjmp	.+408    	; 0x272 <__bad_interrupt>
      da:	00 00       	nop
      dc:	ca c0       	rjmp	.+404    	; 0x272 <__bad_interrupt>
      de:	00 00       	nop
      e0:	c8 c0       	rjmp	.+400    	; 0x272 <__bad_interrupt>
      e2:	00 00       	nop
      e4:	c6 c0       	rjmp	.+396    	; 0x272 <__bad_interrupt>
      e6:	00 00       	nop
      e8:	c4 c0       	rjmp	.+392    	; 0x272 <__bad_interrupt>
      ea:	00 00       	nop
      ec:	c2 c0       	rjmp	.+388    	; 0x272 <__bad_interrupt>
      ee:	00 00       	nop
      f0:	c0 c0       	rjmp	.+384    	; 0x272 <__bad_interrupt>
      f2:	00 00       	nop
      f4:	be c0       	rjmp	.+380    	; 0x272 <__bad_interrupt>
      f6:	00 00       	nop
      f8:	bc c0       	rjmp	.+376    	; 0x272 <__bad_interrupt>
      fa:	00 00       	nop
      fc:	ba c0       	rjmp	.+372    	; 0x272 <__bad_interrupt>
      fe:	00 00       	nop
     100:	b8 c0       	rjmp	.+368    	; 0x272 <__bad_interrupt>
     102:	00 00       	nop
     104:	b6 c0       	rjmp	.+364    	; 0x272 <__bad_interrupt>
     106:	00 00       	nop
     108:	b4 c0       	rjmp	.+360    	; 0x272 <__bad_interrupt>
     10a:	00 00       	nop
     10c:	b2 c0       	rjmp	.+356    	; 0x272 <__bad_interrupt>
     10e:	00 00       	nop
     110:	57 c7       	rjmp	.+3758   	; 0xfc0 <__vector_68>
     112:	00 00       	nop
     114:	ae c0       	rjmp	.+348    	; 0x272 <__bad_interrupt>
     116:	00 00       	nop
     118:	ac c0       	rjmp	.+344    	; 0x272 <__bad_interrupt>
     11a:	00 00       	nop
     11c:	aa c0       	rjmp	.+340    	; 0x272 <__bad_interrupt>
     11e:	00 00       	nop
     120:	a8 c0       	rjmp	.+336    	; 0x272 <__bad_interrupt>
     122:	00 00       	nop
     124:	a6 c0       	rjmp	.+332    	; 0x272 <__bad_interrupt>
     126:	00 00       	nop
     128:	a4 c0       	rjmp	.+328    	; 0x272 <__bad_interrupt>
     12a:	00 00       	nop
     12c:	a2 c0       	rjmp	.+324    	; 0x272 <__bad_interrupt>
     12e:	00 00       	nop
     130:	a0 c0       	rjmp	.+320    	; 0x272 <__bad_interrupt>
     132:	00 00       	nop
     134:	9e c0       	rjmp	.+316    	; 0x272 <__bad_interrupt>
     136:	00 00       	nop
     138:	9c c0       	rjmp	.+312    	; 0x272 <__bad_interrupt>
     13a:	00 00       	nop
     13c:	9a c0       	rjmp	.+308    	; 0x272 <__bad_interrupt>
     13e:	00 00       	nop
     140:	98 c0       	rjmp	.+304    	; 0x272 <__bad_interrupt>
     142:	00 00       	nop
     144:	96 c0       	rjmp	.+300    	; 0x272 <__bad_interrupt>
     146:	00 00       	nop
     148:	94 c0       	rjmp	.+296    	; 0x272 <__bad_interrupt>
     14a:	00 00       	nop
     14c:	48 c7       	rjmp	.+3728   	; 0xfde <__vector_83>
     14e:	00 00       	nop
     150:	90 c0       	rjmp	.+288    	; 0x272 <__bad_interrupt>
     152:	00 00       	nop
     154:	8e c0       	rjmp	.+284    	; 0x272 <__bad_interrupt>
     156:	00 00       	nop
     158:	8c c0       	rjmp	.+280    	; 0x272 <__bad_interrupt>
     15a:	00 00       	nop
     15c:	8a c0       	rjmp	.+276    	; 0x272 <__bad_interrupt>
     15e:	00 00       	nop
     160:	88 c0       	rjmp	.+272    	; 0x272 <__bad_interrupt>
     162:	00 00       	nop
     164:	86 c0       	rjmp	.+268    	; 0x272 <__bad_interrupt>
     166:	00 00       	nop
     168:	84 c0       	rjmp	.+264    	; 0x272 <__bad_interrupt>
     16a:	00 00       	nop
     16c:	82 c0       	rjmp	.+260    	; 0x272 <__bad_interrupt>
     16e:	00 00       	nop
     170:	80 c0       	rjmp	.+256    	; 0x272 <__bad_interrupt>
     172:	00 00       	nop
     174:	7e c0       	rjmp	.+252    	; 0x272 <__bad_interrupt>
     176:	00 00       	nop
     178:	7c c0       	rjmp	.+248    	; 0x272 <__bad_interrupt>
     17a:	00 00       	nop
     17c:	7a c0       	rjmp	.+244    	; 0x272 <__bad_interrupt>
     17e:	00 00       	nop
     180:	78 c0       	rjmp	.+240    	; 0x272 <__bad_interrupt>
     182:	00 00       	nop
     184:	76 c0       	rjmp	.+236    	; 0x272 <__bad_interrupt>
     186:	00 00       	nop
     188:	74 c0       	rjmp	.+232    	; 0x272 <__bad_interrupt>
     18a:	00 00       	nop
     18c:	72 c0       	rjmp	.+228    	; 0x272 <__bad_interrupt>
     18e:	00 00       	nop
     190:	70 c0       	rjmp	.+224    	; 0x272 <__bad_interrupt>
     192:	00 00       	nop
     194:	6e c0       	rjmp	.+220    	; 0x272 <__bad_interrupt>
     196:	00 00       	nop
     198:	6c c0       	rjmp	.+216    	; 0x272 <__bad_interrupt>
     19a:	00 00       	nop
     19c:	6a c0       	rjmp	.+212    	; 0x272 <__bad_interrupt>
     19e:	00 00       	nop
     1a0:	d0 c6       	rjmp	.+3488   	; 0xf42 <__vector_104>
     1a2:	00 00       	nop
     1a4:	d8 c6       	rjmp	.+3504   	; 0xf56 <__vector_105>
     1a6:	00 00       	nop
     1a8:	64 c0       	rjmp	.+200    	; 0x272 <__bad_interrupt>
     1aa:	00 00       	nop
     1ac:	62 c0       	rjmp	.+196    	; 0x272 <__bad_interrupt>
     1ae:	00 00       	nop
     1b0:	60 c0       	rjmp	.+192    	; 0x272 <__bad_interrupt>
     1b2:	00 00       	nop
     1b4:	5e c0       	rjmp	.+188    	; 0x272 <__bad_interrupt>
     1b6:	00 00       	nop
     1b8:	5c c0       	rjmp	.+184    	; 0x272 <__bad_interrupt>
     1ba:	00 00       	nop
     1bc:	5a c0       	rjmp	.+180    	; 0x272 <__bad_interrupt>
     1be:	00 00       	nop
     1c0:	58 c0       	rjmp	.+176    	; 0x272 <__bad_interrupt>
     1c2:	00 00       	nop
     1c4:	56 c0       	rjmp	.+172    	; 0x272 <__bad_interrupt>
     1c6:	00 00       	nop
     1c8:	54 c0       	rjmp	.+168    	; 0x272 <__bad_interrupt>
     1ca:	00 00       	nop
     1cc:	52 c0       	rjmp	.+164    	; 0x272 <__bad_interrupt>
     1ce:	00 00       	nop
     1d0:	50 c0       	rjmp	.+160    	; 0x272 <__bad_interrupt>
     1d2:	00 00       	nop
     1d4:	4e c0       	rjmp	.+156    	; 0x272 <__bad_interrupt>
     1d6:	00 00       	nop
     1d8:	4c c0       	rjmp	.+152    	; 0x272 <__bad_interrupt>
     1da:	00 00       	nop
     1dc:	4a c0       	rjmp	.+148    	; 0x272 <__bad_interrupt>
     1de:	00 00       	nop
     1e0:	48 c0       	rjmp	.+144    	; 0x272 <__bad_interrupt>
     1e2:	00 00       	nop
     1e4:	46 c0       	rjmp	.+140    	; 0x272 <__bad_interrupt>
     1e6:	00 00       	nop
     1e8:	44 c0       	rjmp	.+136    	; 0x272 <__bad_interrupt>
     1ea:	00 00       	nop
     1ec:	42 c0       	rjmp	.+132    	; 0x272 <__bad_interrupt>
     1ee:	00 00       	nop
     1f0:	40 c0       	rjmp	.+128    	; 0x272 <__bad_interrupt>
     1f2:	00 00       	nop
     1f4:	3e c0       	rjmp	.+124    	; 0x272 <__bad_interrupt>
     1f6:	00 00       	nop
     1f8:	3c c0       	rjmp	.+120    	; 0x272 <__bad_interrupt>
     1fa:	00 00       	nop
     1fc:	05 a8       	ldd	r0, Z+53	; 0x35
     1fe:	4c cd       	rjmp	.-1384   	; 0xfffffc98 <__eeprom_end+0xff7efc98>
     200:	b2 d4       	rcall	.+2404   	; 0xb66 <adcPomiar_RD+0x42>
     202:	4e b9       	out	0x0e, r20	; 14
     204:	38 36       	cpi	r19, 0x68	; 104
     206:	a9 02       	muls	r26, r25
     208:	0c 50       	subi	r16, 0x0C	; 12
     20a:	b9 91       	ld	r27, Y+
     20c:	86 88       	ldd	r8, Z+22	; 0x16
     20e:	08 3c       	cpi	r16, 0xC8	; 200
     210:	a6 aa       	std	Z+54, r10	; 0x36
     212:	aa 2a       	or	r10, r26
     214:	be 00       	.word	0x00be	; ????
     216:	00 00       	nop
     218:	80 3f       	cpi	r24, 0xF0	; 240

0000021a <__trampolines_end>:
     21a:	57 65       	ori	r21, 0x57	; 87
     21c:	77 6e       	ori	r23, 0xE7	; 231
     21e:	20 52       	subi	r18, 0x20	; 32
     220:	43 20       	and	r4, r3
     222:	33 32       	cpi	r19, 0x23	; 35
     224:	4d 48       	sbci	r20, 0x8D	; 141
     226:	7a 00       	.word	0x007a	; ????

00000228 <__c.4425>:
     228:	41 77 61 72 69 61 21 00                             Awaria!.

00000230 <__ctors_end>:
     230:	11 24       	eor	r1, r1
     232:	1f be       	out	0x3f, r1	; 63
     234:	cf ef       	ldi	r28, 0xFF	; 255
     236:	cd bf       	out	0x3d, r28	; 61
     238:	df e3       	ldi	r29, 0x3F	; 63
     23a:	de bf       	out	0x3e, r29	; 62
     23c:	00 e0       	ldi	r16, 0x00	; 0
     23e:	0c bf       	out	0x3c, r16	; 60

00000240 <__do_copy_data>:
     240:	10 e2       	ldi	r17, 0x20	; 32
     242:	a0 e0       	ldi	r26, 0x00	; 0
     244:	b0 e2       	ldi	r27, 0x20	; 32
     246:	ee e9       	ldi	r30, 0x9E	; 158
     248:	ff e2       	ldi	r31, 0x2F	; 47
     24a:	00 e0       	ldi	r16, 0x00	; 0
     24c:	0b bf       	out	0x3b, r16	; 59
     24e:	02 c0       	rjmp	.+4      	; 0x254 <__do_copy_data+0x14>
     250:	07 90       	elpm	r0, Z+
     252:	0d 92       	st	X+, r0
     254:	a8 36       	cpi	r26, 0x68	; 104
     256:	b1 07       	cpc	r27, r17
     258:	d9 f7       	brne	.-10     	; 0x250 <__do_copy_data+0x10>

0000025a <__do_clear_bss>:
     25a:	2e e2       	ldi	r18, 0x2E	; 46
     25c:	a8 e6       	ldi	r26, 0x68	; 104
     25e:	b0 e2       	ldi	r27, 0x20	; 32
     260:	01 c0       	rjmp	.+2      	; 0x264 <.do_clear_bss_start>

00000262 <.do_clear_bss_loop>:
     262:	1d 92       	st	X+, r1

00000264 <.do_clear_bss_start>:
     264:	a3 3e       	cpi	r26, 0xE3	; 227
     266:	b2 07       	cpc	r27, r18
     268:	e1 f7       	brne	.-8      	; 0x262 <.do_clear_bss_loop>
     26a:	0e 94 7e 0a 	call	0x14fc	; 0x14fc <main>
     26e:	0c 94 cd 17 	jmp	0x2f9a	; 0x2f9a <_exit>

00000272 <__bad_interrupt>:
     272:	c6 ce       	rjmp	.-628    	; 0x0 <__vectors>

00000274 <bluetooth_init>:
void bluetooth_init(){
	//Zgodnie z tutorialem http://morf.lv/modules.php?name=tutorials&lasit=29, aby ustalic baudrate na 9600 bps
	
	
	//PORTC_OUTSET = PIN3_bm; //Let's make PC7 as TX
	PORTC_DIRSET = PIN3_bm; //TX pin as output
     274:	88 e0       	ldi	r24, 0x08	; 8
     276:	80 93 41 06 	sts	0x0641, r24	; 0x800641 <__TEXT_REGION_LENGTH__+0x700641>
	
	//PORTC_OUTCLR = PIN2_bm;
	PORTC_DIRCLR = PIN2_bm; //PC6 as RX
     27a:	84 e0       	ldi	r24, 0x04	; 4
     27c:	80 93 42 06 	sts	0x0642, r24	; 0x800642 <__TEXT_REGION_LENGTH__+0x700642>
	
	USARTC0_BAUDCTRLB = 0; 
     280:	10 92 a7 08 	sts	0x08A7, r1	; 0x8008a7 <__TEXT_REGION_LENGTH__+0x7008a7>
	USARTC0_BAUDCTRLA = 207; //0xC dla 2 MHz 103 - dla taktowania procesora 16 MHz Dla 32 Mhz - 207
     284:	8f ec       	ldi	r24, 0xCF	; 207
     286:	80 93 a6 08 	sts	0x08A6, r24	; 0x8008a6 <__TEXT_REGION_LENGTH__+0x7008a6>
	
	//Brak przerwan
	USARTC0_CTRLA = 0;
     28a:	10 92 a3 08 	sts	0x08A3, r1	; 0x8008a3 <__TEXT_REGION_LENGTH__+0x7008a3>
	
	
	
	//8 data bits, no parity and 1 stop bit
	USARTC0.CTRLC = USART_CHSIZE_8BIT_gc; //| USART_PMODE_DISABLED_gc;
     28e:	e0 ea       	ldi	r30, 0xA0	; 160
     290:	f8 e0       	ldi	r31, 0x08	; 8
     292:	83 e0       	ldi	r24, 0x03	; 3
     294:	85 83       	std	Z+5, r24	; 0x05
	
	// Turn on transmission and reception.
	USARTC0.CTRLB |= USART_RXEN_bm | USART_TXEN_bm;
     296:	84 81       	ldd	r24, Z+4	; 0x04
     298:	88 61       	ori	r24, 0x18	; 24
     29a:	84 83       	std	Z+4, r24	; 0x04
     29c:	08 95       	ret

0000029e <rightHandStart>:
 #include "NewControl.h"
 #include "rightHand.h"
 #define  F_CPU 32000000UL

void rightHandStart(){
	flaga_czuj=0;
     29e:	10 92 c7 26 	sts	0x26C7, r1	; 0x8026c7 <flaga_czuj>
     2a2:	10 92 c8 26 	sts	0x26C8, r1	; 0x8026c8 <flaga_czuj+0x1>
	moves_flags = 0;
     2a6:	10 92 d8 26 	sts	0x26D8, r1	; 0x8026d8 <moves_flags>
	#else
		//round up by default
		__ticks_dc = (uint32_t)(ceil(fabs(__tmp)));
	#endif

	__builtin_avr_delay_cycles(__ticks_dc);
     2aa:	2f ef       	ldi	r18, 0xFF	; 255
     2ac:	83 ed       	ldi	r24, 0xD3	; 211
     2ae:	90 e3       	ldi	r25, 0x30	; 48
     2b0:	21 50       	subi	r18, 0x01	; 1
     2b2:	80 40       	sbci	r24, 0x00	; 0
     2b4:	90 40       	sbci	r25, 0x00	; 0
     2b6:	e1 f7       	brne	.-8      	; 0x2b0 <rightHandStart+0x12>
     2b8:	00 c0       	rjmp	.+0      	; 0x2ba <rightHandStart+0x1c>
     2ba:	00 00       	nop
	_delay_ms(500);
	forward(40);
     2bc:	88 e2       	ldi	r24, 0x28	; 40
     2be:	90 e0       	ldi	r25, 0x00	; 0
     2c0:	0e 94 6d 0f 	call	0x1eda	; 0x1eda <forward>
     2c4:	ef ef       	ldi	r30, 0xFF	; 255
     2c6:	f7 ea       	ldi	r31, 0xA7	; 167
     2c8:	21 e6       	ldi	r18, 0x61	; 97
     2ca:	e1 50       	subi	r30, 0x01	; 1
     2cc:	f0 40       	sbci	r31, 0x00	; 0
     2ce:	20 40       	sbci	r18, 0x00	; 0
     2d0:	e1 f7       	brne	.-8      	; 0x2ca <rightHandStart+0x2c>
     2d2:	00 c0       	rjmp	.+0      	; 0x2d4 <rightHandStart+0x36>
     2d4:	00 00       	nop
	_delay_ms(1000);
	float pos_id=0;
     2d6:	c1 2c       	mov	r12, r1
     2d8:	d1 2c       	mov	r13, r1
     2da:	76 01       	movw	r14, r12
				PORTF_OUTCLR=PIN6_bm;
				PORTF_OUTSET=PIN5_bm;
				forward(180);
			}
			else{
				PORTF_OUTCLR=PIN6_bm;
     2dc:	c6 ea       	ldi	r28, 0xA6	; 166
     2de:	d6 e0       	ldi	r29, 0x06	; 6
     2e0:	68 94       	set
     2e2:	88 24       	eor	r8, r8
     2e4:	86 f8       	bld	r8, 6
				PORTF_OUTCLR=PIN5_bm;
     2e6:	68 94       	set
     2e8:	99 24       	eor	r9, r9
     2ea:	95 f8       	bld	r9, 5
				rotateAngle(pos_id-par.dir-PI/2);
     2ec:	0f 2e       	mov	r0, r31
     2ee:	f5 ea       	ldi	r31, 0xA5	; 165
     2f0:	af 2e       	mov	r10, r31
     2f2:	f6 e2       	ldi	r31, 0x26	; 38
     2f4:	bf 2e       	mov	r11, r31
     2f6:	f0 2d       	mov	r31, r0
		}
		else
		{
			if(pomiarfl+pomiarfr<1000){
				PORTF_OUTCLR=PIN6_bm;
				PORTF_OUTSET=PIN5_bm;
     2f8:	05 ea       	ldi	r16, 0xA5	; 165
     2fa:	16 e0       	ldi	r17, 0x06	; 6
	_delay_ms(1000);
	float pos_id=0;
	while(1)
	{
		
		if(pomiarl<50){
     2fc:	80 91 d5 26 	lds	r24, 0x26D5	; 0x8026d5 <pomiarl>
     300:	90 91 d6 26 	lds	r25, 0x26D6	; 0x8026d6 <pomiarl+0x1>
     304:	c2 97       	sbiw	r24, 0x32	; 50
     306:	b4 f5       	brge	.+108    	; 0x374 <rightHandStart+0xd6>
			PORTF_OUTCLR=PIN5_bm;
     308:	98 82       	st	Y, r9
			PORTF_OUTSET=PIN6_bm;
     30a:	f8 01       	movw	r30, r16
     30c:	80 82       	st	Z, r8
			forward(180);
     30e:	84 eb       	ldi	r24, 0xB4	; 180
     310:	90 e0       	ldi	r25, 0x00	; 0
     312:	0e 94 6d 0f 	call	0x1eda	; 0x1eda <forward>
			rotateAngle(pos_id-par.dir+PI/2);
     316:	f5 01       	movw	r30, r10
     318:	20 81       	ld	r18, Z
     31a:	31 81       	ldd	r19, Z+1	; 0x01
     31c:	42 81       	ldd	r20, Z+2	; 0x02
     31e:	53 81       	ldd	r21, Z+3	; 0x03
     320:	c7 01       	movw	r24, r14
     322:	b6 01       	movw	r22, r12
     324:	0e 94 ee 11 	call	0x23dc	; 0x23dc <__subsf3>
     328:	2a ed       	ldi	r18, 0xDA	; 218
     32a:	3f e0       	ldi	r19, 0x0F	; 15
     32c:	49 ec       	ldi	r20, 0xC9	; 201
     32e:	5f e3       	ldi	r21, 0x3F	; 63
     330:	0e 94 ef 11 	call	0x23de	; 0x23de <__addsf3>
     334:	0e 94 d1 0f 	call	0x1fa2	; 0x1fa2 <rotateAngle>
			pos_id=pos_id+PI/2;
     338:	2a ed       	ldi	r18, 0xDA	; 218
     33a:	3f e0       	ldi	r19, 0x0F	; 15
     33c:	49 ec       	ldi	r20, 0xC9	; 201
     33e:	5f e3       	ldi	r21, 0x3F	; 63
     340:	c7 01       	movw	r24, r14
     342:	b6 01       	movw	r22, r12
     344:	0e 94 ef 11 	call	0x23de	; 0x23de <__addsf3>
     348:	6b 01       	movw	r12, r22
     34a:	7c 01       	movw	r14, r24
			if(pos_id>PI)
     34c:	2a ed       	ldi	r18, 0xDA	; 218
     34e:	3f e0       	ldi	r19, 0x0F	; 15
     350:	49 e4       	ldi	r20, 0x49	; 73
     352:	50 e4       	ldi	r21, 0x40	; 64
     354:	0e 94 30 14 	call	0x2860	; 0x2860 <__gesf2>
     358:	18 16       	cp	r1, r24
     35a:	0c f0       	brlt	.+2      	; 0x35e <rightHandStart+0xc0>
     35c:	4f c0       	rjmp	.+158    	; 0x3fc <rightHandStart+0x15e>
			pos_id=pos_id-2*PI;
     35e:	2a ed       	ldi	r18, 0xDA	; 218
     360:	3f e0       	ldi	r19, 0x0F	; 15
     362:	49 ec       	ldi	r20, 0xC9	; 201
     364:	50 e4       	ldi	r21, 0x40	; 64
     366:	c7 01       	movw	r24, r14
     368:	b6 01       	movw	r22, r12
     36a:	0e 94 ee 11 	call	0x23dc	; 0x23dc <__subsf3>
     36e:	6b 01       	movw	r12, r22
     370:	7c 01       	movw	r14, r24
     372:	44 c0       	rjmp	.+136    	; 0x3fc <rightHandStart+0x15e>

		}
		else
		{
			if(pomiarfl+pomiarfr<1000){
     374:	20 91 c5 26 	lds	r18, 0x26C5	; 0x8026c5 <pomiarfl>
     378:	30 91 c6 26 	lds	r19, 0x26C6	; 0x8026c6 <pomiarfl+0x1>
     37c:	80 91 a1 26 	lds	r24, 0x26A1	; 0x8026a1 <pomiarfr>
     380:	90 91 a2 26 	lds	r25, 0x26A2	; 0x8026a2 <pomiarfr+0x1>
     384:	82 0f       	add	r24, r18
     386:	93 1f       	adc	r25, r19
     388:	88 3e       	cpi	r24, 0xE8	; 232
     38a:	93 40       	sbci	r25, 0x03	; 3
     38c:	44 f4       	brge	.+16     	; 0x39e <rightHandStart+0x100>
				PORTF_OUTCLR=PIN6_bm;
     38e:	88 82       	st	Y, r8
				PORTF_OUTSET=PIN5_bm;
     390:	f8 01       	movw	r30, r16
     392:	90 82       	st	Z, r9
				forward(180);
     394:	84 eb       	ldi	r24, 0xB4	; 180
     396:	90 e0       	ldi	r25, 0x00	; 0
     398:	0e 94 6d 0f 	call	0x1eda	; 0x1eda <forward>
     39c:	2f c0       	rjmp	.+94     	; 0x3fc <rightHandStart+0x15e>
			}
			else{
				PORTF_OUTCLR=PIN6_bm;
     39e:	88 82       	st	Y, r8
				PORTF_OUTCLR=PIN5_bm;
     3a0:	98 82       	st	Y, r9
				rotateAngle(pos_id-par.dir-PI/2);
     3a2:	f5 01       	movw	r30, r10
     3a4:	20 81       	ld	r18, Z
     3a6:	31 81       	ldd	r19, Z+1	; 0x01
     3a8:	42 81       	ldd	r20, Z+2	; 0x02
     3aa:	53 81       	ldd	r21, Z+3	; 0x03
     3ac:	c7 01       	movw	r24, r14
     3ae:	b6 01       	movw	r22, r12
     3b0:	0e 94 ee 11 	call	0x23dc	; 0x23dc <__subsf3>
     3b4:	2a ed       	ldi	r18, 0xDA	; 218
     3b6:	3f e0       	ldi	r19, 0x0F	; 15
     3b8:	49 ec       	ldi	r20, 0xC9	; 201
     3ba:	5f e3       	ldi	r21, 0x3F	; 63
     3bc:	0e 94 ee 11 	call	0x23dc	; 0x23dc <__subsf3>
     3c0:	0e 94 d1 0f 	call	0x1fa2	; 0x1fa2 <rotateAngle>
				pos_id=pos_id-PI/2;
     3c4:	2a ed       	ldi	r18, 0xDA	; 218
     3c6:	3f e0       	ldi	r19, 0x0F	; 15
     3c8:	49 ec       	ldi	r20, 0xC9	; 201
     3ca:	5f e3       	ldi	r21, 0x3F	; 63
     3cc:	c7 01       	movw	r24, r14
     3ce:	b6 01       	movw	r22, r12
     3d0:	0e 94 ee 11 	call	0x23dc	; 0x23dc <__subsf3>
     3d4:	6b 01       	movw	r12, r22
     3d6:	7c 01       	movw	r14, r24
				if(pos_id<-PI)
     3d8:	2a ed       	ldi	r18, 0xDA	; 218
     3da:	3f e0       	ldi	r19, 0x0F	; 15
     3dc:	49 e4       	ldi	r20, 0x49	; 73
     3de:	50 ec       	ldi	r21, 0xC0	; 192
     3e0:	0e 94 53 12 	call	0x24a6	; 0x24a6 <__cmpsf2>
     3e4:	88 23       	and	r24, r24
     3e6:	54 f4       	brge	.+20     	; 0x3fc <rightHandStart+0x15e>
				pos_id=pos_id+2*PI;
     3e8:	2a ed       	ldi	r18, 0xDA	; 218
     3ea:	3f e0       	ldi	r19, 0x0F	; 15
     3ec:	49 ec       	ldi	r20, 0xC9	; 201
     3ee:	50 e4       	ldi	r21, 0x40	; 64
     3f0:	c7 01       	movw	r24, r14
     3f2:	b6 01       	movw	r22, r12
     3f4:	0e 94 ef 11 	call	0x23de	; 0x23de <__addsf3>
     3f8:	6b 01       	movw	r12, r22
     3fa:	7c 01       	movw	r14, r24
     3fc:	8f e3       	ldi	r24, 0x3F	; 63
     3fe:	9f e1       	ldi	r25, 0x1F	; 31
     400:	01 97       	sbiw	r24, 0x01	; 1
     402:	f1 f7       	brne	.-4      	; 0x400 <__LOCK_REGION_LENGTH__>
     404:	00 c0       	rjmp	.+0      	; 0x406 <__LOCK_REGION_LENGTH__+0x6>
     406:	00 00       	nop
     408:	79 cf       	rjmp	.-270    	; 0x2fc <rightHandStart+0x5e>

0000040a <TWI_MasterInit>:

void TWI_MasterInit(void) 
{
	
	//WIEN,RIEN, ENABLE and INTLVL bits high.  0xF8 - 1111 1000 
	TWIE.MASTER.CTRLA	=	TWI_MASTER_ENABLE_bm | TWI_MASTER_RIEN_bm |	TWI_MASTER_WIEN_bm ;
     40a:	e0 ea       	ldi	r30, 0xA0	; 160
     40c:	f4 e0       	ldi	r31, 0x04	; 4
     40e:	88 e3       	ldi	r24, 0x38	; 56
     410:	81 83       	std	Z+1, r24	; 0x01
	
	// SMEN - SMART MODE ENABLE - 0x01 */
	TWIE.MASTER.CTRLB	=   TWI_MASTER_SMEN_bm;
     412:	91 e0       	ldi	r25, 0x01	; 1
     414:	92 83       	std	Z+2, r25	; 0x02
	
	//Force TWI bus into idle mode - 0x01
	TWIE.MASTER.STATUS	=	TWI_MASTER_BUSSTATE_IDLE_gc;
     416:	94 83       	std	Z+4, r25	; 0x04
	
	//Set TWI baud rate
	TWIE.MASTER.BAUD	=	TWI_BAUDRATE; //0x35 - 400kHz
     418:	93 e2       	ldi	r25, 0x23	; 35
     41a:	95 83       	std	Z+5, r25	; 0x05
	
	PORTE.PIN0CTRL		=	PORT_OPC_WIREDANDPULL_gc;
     41c:	e0 e8       	ldi	r30, 0x80	; 128
     41e:	f6 e0       	ldi	r31, 0x06	; 6
     420:	80 8b       	std	Z+16, r24	; 0x10
	PORTE.PIN1CTRL		=	PORT_OPC_WIREDANDPULL_gc;
     422:	81 8b       	std	Z+17, r24	; 0x11
     424:	08 95       	ret

00000426 <writeByte>:
	
}

uint8_t writeByte(uint8_t addr,uint8_t val)
{
	TWIE.MASTER.ADDR = 0xD6;	//0b11010110 - 0xD6 - Write - SP + SAD + W
     426:	96 ed       	ldi	r25, 0xD6	; 214
     428:	90 93 a6 04 	sts	0x04A6, r25	; 0x8004a6 <__TEXT_REGION_LENGTH__+0x7004a6>
	while(!(TWIE.MASTER.STATUS & TWI_MASTER_WIF_bm));
     42c:	e0 ea       	ldi	r30, 0xA0	; 160
     42e:	f4 e0       	ldi	r31, 0x04	; 4
     430:	94 81       	ldd	r25, Z+4	; 0x04
     432:	96 ff       	sbrs	r25, 6
     434:	fd cf       	rjmp	.-6      	; 0x430 <writeByte+0xa>
	
	//if(!(TWIE.MASTER.STATUS & TWI_MASTER_RXACK_bm)) // SAK
	//	return 0;
	
	TWIE.MASTER.DATA = addr; // SUB
     436:	80 93 a7 04 	sts	0x04A7, r24	; 0x8004a7 <__TEXT_REGION_LENGTH__+0x7004a7>
	while(!(TWIE.MASTER.STATUS & TWI_MASTER_WIF_bm));
     43a:	e0 ea       	ldi	r30, 0xA0	; 160
     43c:	f4 e0       	ldi	r31, 0x04	; 4
     43e:	84 81       	ldd	r24, Z+4	; 0x04
     440:	86 ff       	sbrs	r24, 6
     442:	fd cf       	rjmp	.-6      	; 0x43e <writeByte+0x18>
	
	//if(!(TWIE.MASTER.STATUS & TWI_MASTER_RXACK_bm)) // SAK
	//	return 0;
	
	TWIE.MASTER.DATA = val; //DATA
     444:	60 93 a7 04 	sts	0x04A7, r22	; 0x8004a7 <__TEXT_REGION_LENGTH__+0x7004a7>
	while(!(TWIE.MASTER.STATUS & TWI_MASTER_WIF_bm));
     448:	e0 ea       	ldi	r30, 0xA0	; 160
     44a:	f4 e0       	ldi	r31, 0x04	; 4
     44c:	84 81       	ldd	r24, Z+4	; 0x04
     44e:	86 ff       	sbrs	r24, 6
     450:	fd cf       	rjmp	.-6      	; 0x44c <writeByte+0x26>
	
	TWIE.MASTER.CTRLC = TWI_MASTER_CMD_STOP_gc; // SP
     452:	83 e0       	ldi	r24, 0x03	; 3
     454:	80 93 a3 04 	sts	0x04A3, r24	; 0x8004a3 <__TEXT_REGION_LENGTH__+0x7004a3>
	
	return 1;
	
}
     458:	81 e0       	ldi	r24, 0x01	; 1
     45a:	08 95       	ret

0000045c <enableDefault>:
void enableDefault(void)
{
	
	
	// High-pass filter disabled
	writeByte(REG_CTRL2, 0x00);
     45c:	60 e0       	ldi	r22, 0x00	; 0
     45e:	81 e2       	ldi	r24, 0x21	; 33
     460:	e2 df       	rcall	.-60     	; 0x426 <writeByte>
	
	//CTRL3 0x80 = 0b1000000
	//INT1_IG (Interrupt enable)
	writeByte(REG_CTRL3, 0x80);
     462:	60 e8       	ldi	r22, 0x80	; 128
     464:	82 e2       	ldi	r24, 0x22	; 34
     466:	df df       	rcall	.-66     	; 0x426 <writeByte>
	
	// 0x20 = 0b10100000
	// FS = 10 (+/- 2000 dps full scale) and block data update = 1
	writeByte(REG_CTRL4, 0xA0);
     468:	60 ea       	ldi	r22, 0xA0	; 160
     46a:	83 e2       	ldi	r24, 0x23	; 35
     46c:	dc df       	rcall	.-72     	; 0x426 <writeByte>
	
	//threshold 60dps (High)
	writeByte(REG_IG_THS_YH,0x1F);
     46e:	6f e1       	ldi	r22, 0x1F	; 31
     470:	84 e3       	ldi	r24, 0x34	; 52
     472:	d9 df       	rcall	.-78     	; 0x426 <writeByte>
	
	//threshold 60dps (High)
	writeByte(REG_IG_THS_YL,0x58);
     474:	68 e5       	ldi	r22, 0x58	; 88
     476:	85 e3       	ldi	r24, 0x35	; 53
     478:	d6 df       	rcall	.-84     	; 0x426 <writeByte>
	
	// duration = 1/DR = 1/800 = 1.25ms
	writeByte(REG_IG_DURATION, 0x01);
     47a:	61 e0       	ldi	r22, 0x01	; 1
     47c:	88 e3       	ldi	r24, 0x38	; 56
     47e:	d3 df       	rcall	.-90     	; 0x426 <writeByte>
	
	//Enable interrupt generation on Y high event
	writeByte(REG_IG_CFG,0x08);
     480:	68 e0       	ldi	r22, 0x08	; 8
     482:	80 e3       	ldi	r24, 0x30	; 48
     484:	d0 df       	rcall	.-96     	; 0x426 <writeByte>
	
	// 0x6F = 0b11111111
	// DR = 11 (800 Hz ODR); BW = 11 (100 Hz bandwidth); PD = 1 (normal mode); Zen = Yen = Xen = 1 (all axes enabled)
	writeByte(REG_CTRL1, 0xFF);
     486:	6f ef       	ldi	r22, 0xFF	; 255
     488:	80 e2       	ldi	r24, 0x20	; 32
     48a:	cd cf       	rjmp	.-102    	; 0x426 <writeByte>
     48c:	08 95       	ret

0000048e <readByte>:

uint8_t readByte(uint8_t addr)
{
	uint8_t data = 0;
	
	TWIE.MASTER.ADDR = 0b11010110; //Write - ST + (SAD + W)
     48e:	96 ed       	ldi	r25, 0xD6	; 214
     490:	90 93 a6 04 	sts	0x04A6, r25	; 0x8004a6 <__TEXT_REGION_LENGTH__+0x7004a6>
	while(!(TWIE.MASTER.STATUS & TWI_MASTER_WIF_bm));
     494:	e0 ea       	ldi	r30, 0xA0	; 160
     496:	f4 e0       	ldi	r31, 0x04	; 4
     498:	94 81       	ldd	r25, Z+4	; 0x04
     49a:	96 ff       	sbrs	r25, 6
     49c:	fd cf       	rjmp	.-6      	; 0x498 <readByte+0xa>
	
	TWIE.MASTER.DATA = addr; //SUB
     49e:	80 93 a7 04 	sts	0x04A7, r24	; 0x8004a7 <__TEXT_REGION_LENGTH__+0x7004a7>
	while(!(TWIE.MASTER.STATUS & TWI_MASTER_WIF_bm));
     4a2:	e0 ea       	ldi	r30, 0xA0	; 160
     4a4:	f4 e0       	ldi	r31, 0x04	; 4
     4a6:	84 81       	ldd	r24, Z+4	; 0x04
     4a8:	86 ff       	sbrs	r24, 6
     4aa:	fd cf       	rjmp	.-6      	; 0x4a6 <readByte+0x18>
	
	TWIE.MASTER.ADDR = 0b11010111; //Read SR + (SAD + R)
     4ac:	87 ed       	ldi	r24, 0xD7	; 215
     4ae:	80 93 a6 04 	sts	0x04A6, r24	; 0x8004a6 <__TEXT_REGION_LENGTH__+0x7004a6>
	while(!(TWIE.MASTER.STATUS & TWI_MASTER_RIF_bm));
     4b2:	e0 ea       	ldi	r30, 0xA0	; 160
     4b4:	f4 e0       	ldi	r31, 0x04	; 4
     4b6:	84 81       	ldd	r24, Z+4	; 0x04
     4b8:	88 23       	and	r24, r24
     4ba:	ec f7       	brge	.-6      	; 0x4b6 <readByte+0x28>
	
	TWIE.MASTER.CTRLC |= TWI_MASTER_ACKACT_bm;
     4bc:	e0 ea       	ldi	r30, 0xA0	; 160
     4be:	f4 e0       	ldi	r31, 0x04	; 4
     4c0:	83 81       	ldd	r24, Z+3	; 0x03
     4c2:	84 60       	ori	r24, 0x04	; 4
     4c4:	83 83       	std	Z+3, r24	; 0x03
	
	data = TWIE.MASTER.DATA;
     4c6:	87 81       	ldd	r24, Z+7	; 0x07
	
	//TWIE.MASTER.CTRLC |= TWI_MASTER_ACKACT_bm | TWI_MASTER_CMD_STOP_gc;		// send NACK

	return data;
	
}
     4c8:	08 95       	ret

000004ca <readByteMulti>:

void readByteMulti(void)
{
     4ca:	af 92       	push	r10
     4cc:	bf 92       	push	r11
     4ce:	cf 92       	push	r12
     4d0:	df 92       	push	r13
     4d2:	ef 92       	push	r14
     4d4:	ff 92       	push	r15
     4d6:	0f 93       	push	r16
     4d8:	1f 93       	push	r17
     4da:	cf 93       	push	r28
	struct gyro g;
	
	//g.xlg = readByte(REG_OUT_X_L);
	//g.xhg = readByte(REG_OUT_X_H);
	g.ylg = readByte(REG_OUT_Y_L);
     4dc:	8a e2       	ldi	r24, 0x2A	; 42
     4de:	d7 df       	rcall	.-82     	; 0x48e <readByte>
     4e0:	c8 2f       	mov	r28, r24
	g.yhg = readByte(REG_OUT_Y_H);
     4e2:	8b e2       	ldi	r24, 0x2B	; 43
     4e4:	d4 df       	rcall	.-88     	; 0x48e <readByte>
	//}
	//else
	//{
		//gyro.z = g.zlg + g.zhg*256;
	//}
	gyro.y = g.ylg + g.yhg*256;
     4e6:	28 2f       	mov	r18, r24
     4e8:	30 e0       	ldi	r19, 0x00	; 0
     4ea:	40 e0       	ldi	r20, 0x00	; 0
     4ec:	50 e0       	ldi	r21, 0x00	; 0
     4ee:	60 e0       	ldi	r22, 0x00	; 0
     4f0:	70 e0       	ldi	r23, 0x00	; 0
     4f2:	80 e0       	ldi	r24, 0x00	; 0
     4f4:	90 e0       	ldi	r25, 0x00	; 0
     4f6:	08 e0       	ldi	r16, 0x08	; 8
     4f8:	0e 94 03 15 	call	0x2a06	; 0x2a06 <__ashldi3>
     4fc:	a2 2e       	mov	r10, r18
     4fe:	b3 2e       	mov	r11, r19
     500:	c4 2e       	mov	r12, r20
     502:	d5 2e       	mov	r13, r21
     504:	e6 2e       	mov	r14, r22
     506:	f7 2e       	mov	r15, r23
     508:	08 2f       	mov	r16, r24
     50a:	19 2f       	mov	r17, r25
     50c:	2c 2f       	mov	r18, r28
     50e:	30 e0       	ldi	r19, 0x00	; 0
     510:	40 e0       	ldi	r20, 0x00	; 0
     512:	50 e0       	ldi	r21, 0x00	; 0
     514:	60 e0       	ldi	r22, 0x00	; 0
     516:	70 e0       	ldi	r23, 0x00	; 0
     518:	80 e0       	ldi	r24, 0x00	; 0
     51a:	90 e0       	ldi	r25, 0x00	; 0
     51c:	0e 94 1c 15 	call	0x2a38	; 0x2a38 <__adddi3>
     520:	0e 94 f3 12 	call	0x25e6	; 0x25e6 <__floatdisf>
     524:	60 93 bb 26 	sts	0x26BB, r22	; 0x8026bb <gyro>
     528:	70 93 bc 26 	sts	0x26BC, r23	; 0x8026bc <gyro+0x1>
     52c:	80 93 bd 26 	sts	0x26BD, r24	; 0x8026bd <gyro+0x2>
     530:	90 93 be 26 	sts	0x26BE, r25	; 0x8026be <gyro+0x3>
}
     534:	cf 91       	pop	r28
     536:	1f 91       	pop	r17
     538:	0f 91       	pop	r16
     53a:	ff 90       	pop	r15
     53c:	ef 90       	pop	r14
     53e:	df 90       	pop	r13
     540:	cf 90       	pop	r12
     542:	bf 90       	pop	r11
     544:	af 90       	pop	r10
     546:	08 95       	ret

00000548 <getAngleRadians>:

float getAngleRadians(){
	readByteMulti();	
     548:	c0 df       	rcall	.-128    	; 0x4ca <readByteMulti>
	return gyro.y;//*SENSITIVITY_500DPS*DPS_TO_RADS - 0.051;
     54a:	60 91 bb 26 	lds	r22, 0x26BB	; 0x8026bb <gyro>
     54e:	70 91 bc 26 	lds	r23, 0x26BC	; 0x8026bc <gyro+0x1>
     552:	80 91 bd 26 	lds	r24, 0x26BD	; 0x8026bd <gyro+0x2>
     556:	90 91 be 26 	lds	r25, 0x26BE	; 0x8026be <gyro+0x3>
     55a:	08 95       	ret

0000055c <_lcd_OutNibble>:
	char bufor;
	while ((bufor = (char)pgm_read_byte(data++))) LcdData(bufor);
}

void LcdGoto(unsigned char x, unsigned char y) {
	LcdCommand(HD44780_DDRAM_SET | (x + (0x40 * y)));
     55c:	80 ff       	sbrs	r24, 0
     55e:	04 c0       	rjmp	.+8      	; 0x568 <_lcd_OutNibble+0xc>
     560:	90 e1       	ldi	r25, 0x10	; 16
     562:	90 93 45 06 	sts	0x0645, r25	; 0x800645 <__TEXT_REGION_LENGTH__+0x700645>
     566:	03 c0       	rjmp	.+6      	; 0x56e <_lcd_OutNibble+0x12>
     568:	90 e1       	ldi	r25, 0x10	; 16
     56a:	90 93 46 06 	sts	0x0646, r25	; 0x800646 <__TEXT_REGION_LENGTH__+0x700646>
     56e:	81 ff       	sbrs	r24, 1
     570:	04 c0       	rjmp	.+8      	; 0x57a <_lcd_OutNibble+0x1e>
     572:	90 e2       	ldi	r25, 0x20	; 32
     574:	90 93 45 06 	sts	0x0645, r25	; 0x800645 <__TEXT_REGION_LENGTH__+0x700645>
     578:	03 c0       	rjmp	.+6      	; 0x580 <_lcd_OutNibble+0x24>
     57a:	90 e2       	ldi	r25, 0x20	; 32
     57c:	90 93 46 06 	sts	0x0646, r25	; 0x800646 <__TEXT_REGION_LENGTH__+0x700646>
     580:	82 ff       	sbrs	r24, 2
     582:	04 c0       	rjmp	.+8      	; 0x58c <_lcd_OutNibble+0x30>
     584:	90 e4       	ldi	r25, 0x40	; 64
     586:	90 93 45 06 	sts	0x0645, r25	; 0x800645 <__TEXT_REGION_LENGTH__+0x700645>
     58a:	03 c0       	rjmp	.+6      	; 0x592 <_lcd_OutNibble+0x36>
     58c:	90 e4       	ldi	r25, 0x40	; 64
     58e:	90 93 46 06 	sts	0x0646, r25	; 0x800646 <__TEXT_REGION_LENGTH__+0x700646>
     592:	83 ff       	sbrs	r24, 3
     594:	04 c0       	rjmp	.+8      	; 0x59e <_lcd_OutNibble+0x42>
     596:	80 e8       	ldi	r24, 0x80	; 128
     598:	80 93 45 06 	sts	0x0645, r24	; 0x800645 <__TEXT_REGION_LENGTH__+0x700645>
     59c:	08 95       	ret
     59e:	80 e8       	ldi	r24, 0x80	; 128
     5a0:	80 93 46 06 	sts	0x0646, r24	; 0x800646 <__TEXT_REGION_LENGTH__+0x700646>
     5a4:	08 95       	ret

000005a6 <_lcd_Write>:
     5a6:	0f 93       	push	r16
     5a8:	1f 93       	push	r17
     5aa:	cf 93       	push	r28
     5ac:	df 93       	push	r29
     5ae:	08 2f       	mov	r16, r24
     5b0:	c0 e4       	ldi	r28, 0x40	; 64
     5b2:	d6 e0       	ldi	r29, 0x06	; 6
     5b4:	18 e0       	ldi	r17, 0x08	; 8
     5b6:	1d 83       	std	Y+5, r17	; 0x05
     5b8:	82 95       	swap	r24
     5ba:	8f 70       	andi	r24, 0x0F	; 15
     5bc:	cf df       	rcall	.-98     	; 0x55c <_lcd_OutNibble>
     5be:	1e 83       	std	Y+6, r17	; 0x06
     5c0:	00 00       	nop
     5c2:	1d 83       	std	Y+5, r17	; 0x05
     5c4:	80 2f       	mov	r24, r16
     5c6:	ca df       	rcall	.-108    	; 0x55c <_lcd_OutNibble>
     5c8:	1e 83       	std	Y+6, r17	; 0x06
     5ca:	8f e8       	ldi	r24, 0x8F	; 143
     5cc:	91 e0       	ldi	r25, 0x01	; 1
     5ce:	01 97       	sbiw	r24, 0x01	; 1
     5d0:	f1 f7       	brne	.-4      	; 0x5ce <_lcd_Write+0x28>
     5d2:	00 c0       	rjmp	.+0      	; 0x5d4 <_lcd_Write+0x2e>
     5d4:	00 00       	nop
     5d6:	df 91       	pop	r29
     5d8:	cf 91       	pop	r28
     5da:	1f 91       	pop	r17
     5dc:	0f 91       	pop	r16
     5de:	08 95       	ret

000005e0 <LcdCommand>:
     5e0:	94 e0       	ldi	r25, 0x04	; 4
     5e2:	90 93 46 06 	sts	0x0646, r25	; 0x800646 <__TEXT_REGION_LENGTH__+0x700646>
     5e6:	df cf       	rjmp	.-66     	; 0x5a6 <_lcd_Write>
     5e8:	08 95       	ret

000005ea <LcdData>:
     5ea:	94 e0       	ldi	r25, 0x04	; 4
     5ec:	90 93 45 06 	sts	0x0645, r25	; 0x800645 <__TEXT_REGION_LENGTH__+0x700645>
     5f0:	da cf       	rjmp	.-76     	; 0x5a6 <_lcd_Write>
     5f2:	08 95       	ret

000005f4 <LcdWriteProgmem>:
     5f4:	cf 93       	push	r28
     5f6:	df 93       	push	r29
     5f8:	ec 01       	movw	r28, r24
     5fa:	21 96       	adiw	r28, 0x01	; 1
     5fc:	fc 01       	movw	r30, r24
     5fe:	84 91       	lpm	r24, Z
     600:	88 23       	and	r24, r24
     602:	31 f0       	breq	.+12     	; 0x610 <LcdWriteProgmem+0x1c>
     604:	f2 df       	rcall	.-28     	; 0x5ea <LcdData>
     606:	fe 01       	movw	r30, r28
     608:	84 91       	lpm	r24, Z
     60a:	21 96       	adiw	r28, 0x01	; 1
     60c:	81 11       	cpse	r24, r1
     60e:	fa cf       	rjmp	.-12     	; 0x604 <LcdWriteProgmem+0x10>
     610:	df 91       	pop	r29
     612:	cf 91       	pop	r28
     614:	08 95       	ret

00000616 <LcdClear>:
}

void LcdClear(void) {
	LcdCommand(HD44780_CLEAR);
     616:	81 e0       	ldi	r24, 0x01	; 1
     618:	e3 df       	rcall	.-58     	; 0x5e0 <LcdCommand>
     61a:	8f e7       	ldi	r24, 0x7F	; 127
     61c:	9e e3       	ldi	r25, 0x3E	; 62
     61e:	01 97       	sbiw	r24, 0x01	; 1
     620:	f1 f7       	brne	.-4      	; 0x61e <LcdClear+0x8>
     622:	00 c0       	rjmp	.+0      	; 0x624 <LcdClear+0xe>
     624:	00 00       	nop
     626:	08 95       	ret

00000628 <ReadCalibrationByte>:
}
void ledYellow(void){
	PORTF_OUTTGL=PIN5_bm;
}
void ledGreen(void){
	PORTF_OUTTGL=PIN6_bm;
     628:	aa ec       	ldi	r26, 0xCA	; 202
     62a:	b1 e0       	ldi	r27, 0x01	; 1
     62c:	92 e0       	ldi	r25, 0x02	; 2
     62e:	9c 93       	st	X, r25
     630:	e8 2f       	mov	r30, r24
     632:	f0 e0       	ldi	r31, 0x00	; 0
     634:	84 91       	lpm	r24, Z
     636:	1c 92       	st	X, r1
     638:	08 95       	ret

0000063a <Osc32MHz>:
     63a:	82 e0       	ldi	r24, 0x02	; 2
     63c:	80 93 50 00 	sts	0x0050, r24	; 0x800050 <__TEXT_REGION_LENGTH__+0x700050>
     640:	e0 e5       	ldi	r30, 0x50	; 80
     642:	f0 e0       	ldi	r31, 0x00	; 0
     644:	81 81       	ldd	r24, Z+1	; 0x01
     646:	81 ff       	sbrs	r24, 1
     648:	fd cf       	rjmp	.-6      	; 0x644 <Osc32MHz+0xa>
     64a:	88 ed       	ldi	r24, 0xD8	; 216
     64c:	84 bf       	out	0x34, r24	; 52
     64e:	81 e0       	ldi	r24, 0x01	; 1
     650:	80 93 40 00 	sts	0x0040, r24	; 0x800040 <__TEXT_REGION_LENGTH__+0x700040>
     654:	e0 df       	rcall	.-64     	; 0x616 <LcdClear>
     656:	8a e1       	ldi	r24, 0x1A	; 26
     658:	92 e0       	ldi	r25, 0x02	; 2
     65a:	cc df       	rcall	.-104    	; 0x5f4 <LcdWriteProgmem>
     65c:	2f ef       	ldi	r18, 0xFF	; 255
     65e:	87 ea       	ldi	r24, 0xA7	; 167
     660:	91 e6       	ldi	r25, 0x61	; 97
     662:	21 50       	subi	r18, 0x01	; 1
     664:	80 40       	sbci	r24, 0x00	; 0
     666:	90 40       	sbci	r25, 0x00	; 0
     668:	e1 f7       	brne	.-8      	; 0x662 <Osc32MHz+0x28>
     66a:	00 c0       	rjmp	.+0      	; 0x66c <Osc32MHz+0x32>
     66c:	00 00       	nop
     66e:	d3 cf       	rjmp	.-90     	; 0x616 <LcdClear>
     670:	08 95       	ret

00000672 <setADC>:
     672:	0f 93       	push	r16
     674:	1f 93       	push	r17
     676:	cf 93       	push	r28
     678:	df 93       	push	r29
     67a:	df df       	rcall	.-66     	; 0x63a <Osc32MHz>
     67c:	c0 e4       	ldi	r28, 0x40	; 64
     67e:	d2 e0       	ldi	r29, 0x02	; 2
     680:	14 e0       	ldi	r17, 0x04	; 4
     682:	1c 83       	std	Y+4, r17	; 0x04
     684:	00 e1       	ldi	r16, 0x10	; 16
     686:	09 83       	std	Y+1, r16	; 0x01
     688:	80 e2       	ldi	r24, 0x20	; 32
     68a:	ce df       	rcall	.-100    	; 0x628 <ReadCalibrationByte>
     68c:	8c 87       	std	Y+12, r24	; 0x0c
     68e:	81 e2       	ldi	r24, 0x21	; 33
     690:	cb df       	rcall	.-106    	; 0x628 <ReadCalibrationByte>
     692:	8d 87       	std	Y+13, r24	; 0x0d
     694:	0a 83       	std	Y+2, r16	; 0x02
     696:	1b 82       	std	Y+3, r1	; 0x03
     698:	81 e0       	ldi	r24, 0x01	; 1
     69a:	88 83       	st	Y, r24
     69c:	97 e0       	ldi	r25, 0x07	; 7
     69e:	90 93 a2 00 	sts	0x00A2, r25	; 0x8000a2 <__TEXT_REGION_LENGTH__+0x7000a2>
     6a2:	e0 e2       	ldi	r30, 0x20	; 32
     6a4:	f6 e0       	ldi	r31, 0x06	; 6
     6a6:	32 e0       	ldi	r19, 0x02	; 2
     6a8:	32 83       	std	Z+2, r19	; 0x02
     6aa:	88 a3       	std	Y+32, r24	; 0x20
     6ac:	19 a2       	std	Y+33, r1	; 0x21
     6ae:	8e 83       	std	Y+6, r24	; 0x06
     6b0:	93 e0       	ldi	r25, 0x03	; 3
     6b2:	9a a3       	std	Y+34, r25	; 0x22
     6b4:	82 83       	std	Z+2, r24	; 0x02
     6b6:	88 a7       	std	Y+40, r24	; 0x28
     6b8:	28 e0       	ldi	r18, 0x08	; 8
     6ba:	29 a7       	std	Y+41, r18	; 0x29
     6bc:	3e 83       	std	Y+6, r19	; 0x06
     6be:	9a a7       	std	Y+42, r25	; 0x2a
     6c0:	12 83       	std	Z+2, r17	; 0x02
     6c2:	88 ab       	std	Y+48, r24	; 0x30
     6c4:	09 ab       	std	Y+49, r16	; 0x31
     6c6:	1e 83       	std	Y+6, r17	; 0x06
     6c8:	9a ab       	std	Y+50, r25	; 0x32
     6ca:	22 83       	std	Z+2, r18	; 0x02
     6cc:	88 af       	std	Y+56, r24	; 0x38
     6ce:	88 e1       	ldi	r24, 0x18	; 24
     6d0:	89 af       	std	Y+57, r24	; 0x39
     6d2:	2e 83       	std	Y+6, r18	; 0x06
     6d4:	9a af       	std	Y+58, r25	; 0x3a
     6d6:	78 94       	sei
     6d8:	df 91       	pop	r29
     6da:	cf 91       	pop	r28
     6dc:	1f 91       	pop	r17
     6de:	0f 91       	pop	r16
     6e0:	08 95       	ret

000006e2 <adcPomiar_RF>:
     6e2:	8f 92       	push	r8
     6e4:	9f 92       	push	r9
     6e6:	af 92       	push	r10
     6e8:	bf 92       	push	r11
     6ea:	df 92       	push	r13
     6ec:	ef 92       	push	r14
     6ee:	ff 92       	push	r15
     6f0:	0f 93       	push	r16
     6f2:	1f 93       	push	r17
     6f4:	cf 93       	push	r28
     6f6:	df 93       	push	r29
     6f8:	cd b7       	in	r28, 0x3d	; 61
     6fa:	de b7       	in	r29, 0x3e	; 62
     6fc:	a8 97       	sbiw	r28, 0x28	; 40
     6fe:	cd bf       	out	0x3d, r28	; 61
     700:	de bf       	out	0x3e, r29	; 62
     702:	be 01       	movw	r22, r28
     704:	6f 5f       	subi	r22, 0xFF	; 255
     706:	7f 4f       	sbci	r23, 0xFF	; 255
     708:	ae 01       	movw	r20, r28
     70a:	4b 5e       	subi	r20, 0xEB	; 235
     70c:	5f 4f       	sbci	r21, 0xFF	; 255
     70e:	7a 01       	movw	r14, r20
     710:	9a 01       	movw	r18, r20
     712:	5b 01       	movw	r10, r22
     714:	e0 e4       	ldi	r30, 0x40	; 64
     716:	f2 e0       	ldi	r31, 0x02	; 2
     718:	0f 2e       	mov	r0, r31
     71a:	f0 e8       	ldi	r31, 0x80	; 128
     71c:	8f 2e       	mov	r8, r31
     71e:	f6 e0       	ldi	r31, 0x06	; 6
     720:	9f 2e       	mov	r9, r31
     722:	f0 2d       	mov	r31, r0
     724:	68 94       	set
     726:	dd 24       	eor	r13, r13
     728:	d4 f8       	bld	r13, 4
     72a:	1a e6       	ldi	r17, 0x6A	; 106
     72c:	1a 95       	dec	r17
     72e:	f1 f7       	brne	.-4      	; 0x72c <adcPomiar_RF+0x4a>
     730:	00 c0       	rjmp	.+0      	; 0x732 <adcPomiar_RF+0x50>
     732:	80 ad       	ldd	r24, Z+56	; 0x38
     734:	80 68       	ori	r24, 0x80	; 128
     736:	80 af       	std	Z+56, r24	; 0x38
     738:	85 ed       	ldi	r24, 0xD5	; 213
     73a:	8a 95       	dec	r24
     73c:	f1 f7       	brne	.-4      	; 0x73a <adcPomiar_RF+0x58>
     73e:	00 00       	nop
     740:	80 91 9f 25 	lds	r24, 0x259F	; 0x80259f <adc_result_RD>
     744:	90 91 a0 25 	lds	r25, 0x25A0	; 0x8025a0 <adc_result_RD+0x1>
     748:	81 33       	cpi	r24, 0x31	; 49
     74a:	a5 e7       	ldi	r26, 0x75	; 117
     74c:	9a 07       	cpc	r25, r26
     74e:	20 f4       	brcc	.+8      	; 0x758 <adcPomiar_RF+0x76>
     750:	d9 01       	movw	r26, r18
     752:	8d 93       	st	X+, r24
     754:	9c 93       	st	X, r25
     756:	03 c0       	rjmp	.+6      	; 0x75e <adcPomiar_RF+0x7c>
     758:	d9 01       	movw	r26, r18
     75a:	1d 92       	st	X+, r1
     75c:	1c 92       	st	X, r1
     75e:	8f e8       	ldi	r24, 0x8F	; 143
     760:	91 e0       	ldi	r25, 0x01	; 1
     762:	01 97       	sbiw	r24, 0x01	; 1
     764:	f1 f7       	brne	.-4      	; 0x762 <adcPomiar_RF+0x80>
     766:	00 c0       	rjmp	.+0      	; 0x768 <adcPomiar_RF+0x86>
     768:	00 00       	nop
     76a:	d4 01       	movw	r26, r8
     76c:	15 96       	adiw	r26, 0x05	; 5
     76e:	dc 92       	st	X, r13
     770:	b5 e3       	ldi	r27, 0x35	; 53
     772:	ba 95       	dec	r27
     774:	f1 f7       	brne	.-4      	; 0x772 <adcPomiar_RF+0x90>
     776:	00 00       	nop
     778:	80 ad       	ldd	r24, Z+56	; 0x38
     77a:	80 68       	ori	r24, 0x80	; 128
     77c:	80 af       	std	Z+56, r24	; 0x38
     77e:	15 e3       	ldi	r17, 0x35	; 53
     780:	1a 95       	dec	r17
     782:	f1 f7       	brne	.-4      	; 0x780 <adcPomiar_RF+0x9e>
     784:	00 00       	nop
     786:	d4 01       	movw	r26, r8
     788:	16 96       	adiw	r26, 0x06	; 6
     78a:	dc 92       	st	X, r13
     78c:	b5 ed       	ldi	r27, 0xD5	; 213
     78e:	ba 95       	dec	r27
     790:	f1 f7       	brne	.-4      	; 0x78e <adcPomiar_RF+0xac>
     792:	00 00       	nop
     794:	80 91 9f 25 	lds	r24, 0x259F	; 0x80259f <adc_result_RD>
     798:	90 91 a0 25 	lds	r25, 0x25A0	; 0x8025a0 <adc_result_RD+0x1>
     79c:	81 33       	cpi	r24, 0x31	; 49
     79e:	15 e7       	ldi	r17, 0x75	; 117
     7a0:	91 07       	cpc	r25, r17
     7a2:	20 f4       	brcc	.+8      	; 0x7ac <adcPomiar_RF+0xca>
     7a4:	d5 01       	movw	r26, r10
     7a6:	8d 93       	st	X+, r24
     7a8:	9c 93       	st	X, r25
     7aa:	03 c0       	rjmp	.+6      	; 0x7b2 <adcPomiar_RF+0xd0>
     7ac:	d5 01       	movw	r26, r10
     7ae:	1d 92       	st	X+, r1
     7b0:	1c 92       	st	X, r1
     7b2:	b2 e0       	ldi	r27, 0x02	; 2
     7b4:	ab 0e       	add	r10, r27
     7b6:	b1 1c       	adc	r11, r1
     7b8:	2e 5f       	subi	r18, 0xFE	; 254
     7ba:	3f 4f       	sbci	r19, 0xFF	; 255
     7bc:	ae 14       	cp	r10, r14
     7be:	bf 04       	cpc	r11, r15
     7c0:	09 f0       	breq	.+2      	; 0x7c4 <adcPomiar_RF+0xe2>
     7c2:	b3 cf       	rjmp	.-154    	; 0x72a <adcPomiar_RF+0x48>
     7c4:	8e 01       	movw	r16, r28
     7c6:	07 5d       	subi	r16, 0xD7	; 215
     7c8:	1f 4f       	sbci	r17, 0xFF	; 255
     7ca:	e0 e0       	ldi	r30, 0x00	; 0
     7cc:	f0 e0       	ldi	r31, 0x00	; 0
     7ce:	20 e0       	ldi	r18, 0x00	; 0
     7d0:	30 e0       	ldi	r19, 0x00	; 0
     7d2:	da 01       	movw	r26, r20
     7d4:	8d 91       	ld	r24, X+
     7d6:	9d 91       	ld	r25, X+
     7d8:	ad 01       	movw	r20, r26
     7da:	e8 0f       	add	r30, r24
     7dc:	f9 1f       	adc	r31, r25
     7de:	db 01       	movw	r26, r22
     7e0:	8d 91       	ld	r24, X+
     7e2:	9d 91       	ld	r25, X+
     7e4:	bd 01       	movw	r22, r26
     7e6:	28 0f       	add	r18, r24
     7e8:	39 1f       	adc	r19, r25
     7ea:	40 17       	cp	r20, r16
     7ec:	51 07       	cpc	r21, r17
     7ee:	89 f7       	brne	.-30     	; 0x7d2 <adcPomiar_RF+0xf0>
     7f0:	ad ec       	ldi	r26, 0xCD	; 205
     7f2:	bc ec       	ldi	r27, 0xCC	; 204
     7f4:	0e 94 f4 14 	call	0x29e8	; 0x29e8 <__umulhisi3>
     7f8:	ac 01       	movw	r20, r24
     7fa:	56 95       	lsr	r21
     7fc:	47 95       	ror	r20
     7fe:	56 95       	lsr	r21
     800:	47 95       	ror	r20
     802:	56 95       	lsr	r21
     804:	47 95       	ror	r20
     806:	9f 01       	movw	r18, r30
     808:	0e 94 f4 14 	call	0x29e8	; 0x29e8 <__umulhisi3>
     80c:	96 95       	lsr	r25
     80e:	87 95       	ror	r24
     810:	96 95       	lsr	r25
     812:	87 95       	ror	r24
     814:	96 95       	lsr	r25
     816:	87 95       	ror	r24
     818:	9a 01       	movw	r18, r20
     81a:	28 1b       	sub	r18, r24
     81c:	39 0b       	sbc	r19, r25
     81e:	c9 01       	movw	r24, r18
     820:	81 33       	cpi	r24, 0x31	; 49
     822:	35 e7       	ldi	r19, 0x75	; 117
     824:	93 07       	cpc	r25, r19
     826:	10 f0       	brcs	.+4      	; 0x82c <adcPomiar_RF+0x14a>
     828:	80 e0       	ldi	r24, 0x00	; 0
     82a:	90 e0       	ldi	r25, 0x00	; 0
     82c:	a8 96       	adiw	r28, 0x28	; 40
     82e:	cd bf       	out	0x3d, r28	; 61
     830:	de bf       	out	0x3e, r29	; 62
     832:	df 91       	pop	r29
     834:	cf 91       	pop	r28
     836:	1f 91       	pop	r17
     838:	0f 91       	pop	r16
     83a:	ff 90       	pop	r15
     83c:	ef 90       	pop	r14
     83e:	df 90       	pop	r13
     840:	bf 90       	pop	r11
     842:	af 90       	pop	r10
     844:	9f 90       	pop	r9
     846:	8f 90       	pop	r8
     848:	08 95       	ret

0000084a <adcPomiar_LF>:
     84a:	8f 92       	push	r8
     84c:	9f 92       	push	r9
     84e:	af 92       	push	r10
     850:	bf 92       	push	r11
     852:	df 92       	push	r13
     854:	ef 92       	push	r14
     856:	ff 92       	push	r15
     858:	0f 93       	push	r16
     85a:	1f 93       	push	r17
     85c:	cf 93       	push	r28
     85e:	df 93       	push	r29
     860:	cd b7       	in	r28, 0x3d	; 61
     862:	de b7       	in	r29, 0x3e	; 62
     864:	a8 97       	sbiw	r28, 0x28	; 40
     866:	cd bf       	out	0x3d, r28	; 61
     868:	de bf       	out	0x3e, r29	; 62
     86a:	be 01       	movw	r22, r28
     86c:	6f 5f       	subi	r22, 0xFF	; 255
     86e:	7f 4f       	sbci	r23, 0xFF	; 255
     870:	ae 01       	movw	r20, r28
     872:	4b 5e       	subi	r20, 0xEB	; 235
     874:	5f 4f       	sbci	r21, 0xFF	; 255
     876:	7a 01       	movw	r14, r20
     878:	9a 01       	movw	r18, r20
     87a:	5b 01       	movw	r10, r22
     87c:	e0 e4       	ldi	r30, 0x40	; 64
     87e:	f2 e0       	ldi	r31, 0x02	; 2
     880:	0f 2e       	mov	r0, r31
     882:	f0 e8       	ldi	r31, 0x80	; 128
     884:	8f 2e       	mov	r8, r31
     886:	f6 e0       	ldi	r31, 0x06	; 6
     888:	9f 2e       	mov	r9, r31
     88a:	f0 2d       	mov	r31, r0
     88c:	68 94       	set
     88e:	dd 24       	eor	r13, r13
     890:	d7 f8       	bld	r13, 7
     892:	1a e6       	ldi	r17, 0x6A	; 106
     894:	1a 95       	dec	r17
     896:	f1 f7       	brne	.-4      	; 0x894 <adcPomiar_LF+0x4a>
     898:	00 c0       	rjmp	.+0      	; 0x89a <adcPomiar_LF+0x50>
     89a:	80 a1       	ldd	r24, Z+32	; 0x20
     89c:	80 68       	ori	r24, 0x80	; 128
     89e:	80 a3       	std	Z+32, r24	; 0x20
     8a0:	85 ed       	ldi	r24, 0xD5	; 213
     8a2:	8a 95       	dec	r24
     8a4:	f1 f7       	brne	.-4      	; 0x8a2 <adcPomiar_LF+0x58>
     8a6:	00 00       	nop
     8a8:	80 91 9b 24 	lds	r24, 0x249B	; 0x80249b <adc_result_LD>
     8ac:	90 91 9c 24 	lds	r25, 0x249C	; 0x80249c <adc_result_LD+0x1>
     8b0:	81 33       	cpi	r24, 0x31	; 49
     8b2:	a5 e7       	ldi	r26, 0x75	; 117
     8b4:	9a 07       	cpc	r25, r26
     8b6:	20 f4       	brcc	.+8      	; 0x8c0 <adcPomiar_LF+0x76>
     8b8:	d9 01       	movw	r26, r18
     8ba:	8d 93       	st	X+, r24
     8bc:	9c 93       	st	X, r25
     8be:	03 c0       	rjmp	.+6      	; 0x8c6 <adcPomiar_LF+0x7c>
     8c0:	d9 01       	movw	r26, r18
     8c2:	1d 92       	st	X+, r1
     8c4:	1c 92       	st	X, r1
     8c6:	8f e8       	ldi	r24, 0x8F	; 143
     8c8:	91 e0       	ldi	r25, 0x01	; 1
     8ca:	01 97       	sbiw	r24, 0x01	; 1
     8cc:	f1 f7       	brne	.-4      	; 0x8ca <adcPomiar_LF+0x80>
     8ce:	00 c0       	rjmp	.+0      	; 0x8d0 <adcPomiar_LF+0x86>
     8d0:	00 00       	nop
     8d2:	d4 01       	movw	r26, r8
     8d4:	15 96       	adiw	r26, 0x05	; 5
     8d6:	dc 92       	st	X, r13
     8d8:	b5 e3       	ldi	r27, 0x35	; 53
     8da:	ba 95       	dec	r27
     8dc:	f1 f7       	brne	.-4      	; 0x8da <adcPomiar_LF+0x90>
     8de:	00 00       	nop
     8e0:	80 a1       	ldd	r24, Z+32	; 0x20
     8e2:	80 68       	ori	r24, 0x80	; 128
     8e4:	80 a3       	std	Z+32, r24	; 0x20
     8e6:	15 e3       	ldi	r17, 0x35	; 53
     8e8:	1a 95       	dec	r17
     8ea:	f1 f7       	brne	.-4      	; 0x8e8 <adcPomiar_LF+0x9e>
     8ec:	00 00       	nop
     8ee:	d4 01       	movw	r26, r8
     8f0:	16 96       	adiw	r26, 0x06	; 6
     8f2:	dc 92       	st	X, r13
     8f4:	b5 ed       	ldi	r27, 0xD5	; 213
     8f6:	ba 95       	dec	r27
     8f8:	f1 f7       	brne	.-4      	; 0x8f6 <adcPomiar_LF+0xac>
     8fa:	00 00       	nop
     8fc:	80 91 9b 24 	lds	r24, 0x249B	; 0x80249b <adc_result_LD>
     900:	90 91 9c 24 	lds	r25, 0x249C	; 0x80249c <adc_result_LD+0x1>
     904:	81 33       	cpi	r24, 0x31	; 49
     906:	15 e7       	ldi	r17, 0x75	; 117
     908:	91 07       	cpc	r25, r17
     90a:	20 f4       	brcc	.+8      	; 0x914 <adcPomiar_LF+0xca>
     90c:	d5 01       	movw	r26, r10
     90e:	8d 93       	st	X+, r24
     910:	9c 93       	st	X, r25
     912:	03 c0       	rjmp	.+6      	; 0x91a <adcPomiar_LF+0xd0>
     914:	d5 01       	movw	r26, r10
     916:	1d 92       	st	X+, r1
     918:	1c 92       	st	X, r1
     91a:	b2 e0       	ldi	r27, 0x02	; 2
     91c:	ab 0e       	add	r10, r27
     91e:	b1 1c       	adc	r11, r1
     920:	2e 5f       	subi	r18, 0xFE	; 254
     922:	3f 4f       	sbci	r19, 0xFF	; 255
     924:	ae 14       	cp	r10, r14
     926:	bf 04       	cpc	r11, r15
     928:	09 f0       	breq	.+2      	; 0x92c <adcPomiar_LF+0xe2>
     92a:	b3 cf       	rjmp	.-154    	; 0x892 <adcPomiar_LF+0x48>
     92c:	8e 01       	movw	r16, r28
     92e:	07 5d       	subi	r16, 0xD7	; 215
     930:	1f 4f       	sbci	r17, 0xFF	; 255
     932:	e0 e0       	ldi	r30, 0x00	; 0
     934:	f0 e0       	ldi	r31, 0x00	; 0
     936:	20 e0       	ldi	r18, 0x00	; 0
     938:	30 e0       	ldi	r19, 0x00	; 0
     93a:	da 01       	movw	r26, r20
     93c:	8d 91       	ld	r24, X+
     93e:	9d 91       	ld	r25, X+
     940:	ad 01       	movw	r20, r26
     942:	e8 0f       	add	r30, r24
     944:	f9 1f       	adc	r31, r25
     946:	db 01       	movw	r26, r22
     948:	8d 91       	ld	r24, X+
     94a:	9d 91       	ld	r25, X+
     94c:	bd 01       	movw	r22, r26
     94e:	28 0f       	add	r18, r24
     950:	39 1f       	adc	r19, r25
     952:	40 17       	cp	r20, r16
     954:	51 07       	cpc	r21, r17
     956:	89 f7       	brne	.-30     	; 0x93a <adcPomiar_LF+0xf0>
     958:	ad ec       	ldi	r26, 0xCD	; 205
     95a:	bc ec       	ldi	r27, 0xCC	; 204
     95c:	0e 94 f4 14 	call	0x29e8	; 0x29e8 <__umulhisi3>
     960:	ac 01       	movw	r20, r24
     962:	56 95       	lsr	r21
     964:	47 95       	ror	r20
     966:	56 95       	lsr	r21
     968:	47 95       	ror	r20
     96a:	56 95       	lsr	r21
     96c:	47 95       	ror	r20
     96e:	9f 01       	movw	r18, r30
     970:	0e 94 f4 14 	call	0x29e8	; 0x29e8 <__umulhisi3>
     974:	96 95       	lsr	r25
     976:	87 95       	ror	r24
     978:	96 95       	lsr	r25
     97a:	87 95       	ror	r24
     97c:	96 95       	lsr	r25
     97e:	87 95       	ror	r24
     980:	9a 01       	movw	r18, r20
     982:	28 1b       	sub	r18, r24
     984:	39 0b       	sbc	r19, r25
     986:	c9 01       	movw	r24, r18
     988:	81 33       	cpi	r24, 0x31	; 49
     98a:	35 e7       	ldi	r19, 0x75	; 117
     98c:	93 07       	cpc	r25, r19
     98e:	10 f0       	brcs	.+4      	; 0x994 <adcPomiar_LF+0x14a>
     990:	80 e0       	ldi	r24, 0x00	; 0
     992:	90 e0       	ldi	r25, 0x00	; 0
     994:	a8 96       	adiw	r28, 0x28	; 40
     996:	cd bf       	out	0x3d, r28	; 61
     998:	de bf       	out	0x3e, r29	; 62
     99a:	df 91       	pop	r29
     99c:	cf 91       	pop	r28
     99e:	1f 91       	pop	r17
     9a0:	0f 91       	pop	r16
     9a2:	ff 90       	pop	r15
     9a4:	ef 90       	pop	r14
     9a6:	df 90       	pop	r13
     9a8:	bf 90       	pop	r11
     9aa:	af 90       	pop	r10
     9ac:	9f 90       	pop	r9
     9ae:	8f 90       	pop	r8
     9b0:	08 95       	ret

000009b2 <adcPomiar_LD>:
     9b2:	6f 92       	push	r6
     9b4:	7f 92       	push	r7
     9b6:	8f 92       	push	r8
     9b8:	9f 92       	push	r9
     9ba:	bf 92       	push	r11
     9bc:	cf 92       	push	r12
     9be:	df 92       	push	r13
     9c0:	ef 92       	push	r14
     9c2:	ff 92       	push	r15
     9c4:	0f 93       	push	r16
     9c6:	1f 93       	push	r17
     9c8:	cf 93       	push	r28
     9ca:	df 93       	push	r29
     9cc:	cd b7       	in	r28, 0x3d	; 61
     9ce:	de b7       	in	r29, 0x3e	; 62
     9d0:	a8 97       	sbiw	r28, 0x28	; 40
     9d2:	cd bf       	out	0x3d, r28	; 61
     9d4:	de bf       	out	0x3e, r29	; 62
     9d6:	9e 01       	movw	r18, r28
     9d8:	2f 5f       	subi	r18, 0xFF	; 255
     9da:	3f 4f       	sbci	r19, 0xFF	; 255
     9dc:	79 01       	movw	r14, r18
     9de:	ae 01       	movw	r20, r28
     9e0:	4b 5e       	subi	r20, 0xEB	; 235
     9e2:	5f 4f       	sbci	r21, 0xFF	; 255
     9e4:	6a 01       	movw	r12, r20
     9e6:	ba 01       	movw	r22, r20
     9e8:	49 01       	movw	r8, r18
     9ea:	e0 e4       	ldi	r30, 0x40	; 64
     9ec:	f2 e0       	ldi	r31, 0x02	; 2
     9ee:	0f 2e       	mov	r0, r31
     9f0:	f0 e8       	ldi	r31, 0x80	; 128
     9f2:	6f 2e       	mov	r6, r31
     9f4:	f6 e0       	ldi	r31, 0x06	; 6
     9f6:	7f 2e       	mov	r7, r31
     9f8:	f0 2d       	mov	r31, r0
     9fa:	68 94       	set
     9fc:	bb 24       	eor	r11, r11
     9fe:	b6 f8       	bld	r11, 6
     a00:	3a e6       	ldi	r19, 0x6A	; 106
     a02:	3a 95       	dec	r19
     a04:	f1 f7       	brne	.-4      	; 0xa02 <adcPomiar_LD+0x50>
     a06:	00 c0       	rjmp	.+0      	; 0xa08 <adcPomiar_LD+0x56>
     a08:	80 a5       	ldd	r24, Z+40	; 0x28
     a0a:	80 68       	ori	r24, 0x80	; 128
     a0c:	80 a7       	std	Z+40, r24	; 0x28
     a0e:	85 ed       	ldi	r24, 0xD5	; 213
     a10:	8a 95       	dec	r24
     a12:	f1 f7       	brne	.-4      	; 0xa10 <adcPomiar_LD+0x5e>
     a14:	00 00       	nop
     a16:	80 91 93 22 	lds	r24, 0x2293	; 0x802293 <adc_result_LF>
     a1a:	90 91 94 22 	lds	r25, 0x2294	; 0x802294 <adc_result_LF+0x1>
     a1e:	81 33       	cpi	r24, 0x31	; 49
     a20:	a5 e7       	ldi	r26, 0x75	; 117
     a22:	9a 07       	cpc	r25, r26
     a24:	20 f4       	brcc	.+8      	; 0xa2e <adcPomiar_LD+0x7c>
     a26:	db 01       	movw	r26, r22
     a28:	8d 93       	st	X+, r24
     a2a:	9c 93       	st	X, r25
     a2c:	03 c0       	rjmp	.+6      	; 0xa34 <adcPomiar_LD+0x82>
     a2e:	db 01       	movw	r26, r22
     a30:	1d 92       	st	X+, r1
     a32:	1c 92       	st	X, r1
     a34:	8f e8       	ldi	r24, 0x8F	; 143
     a36:	91 e0       	ldi	r25, 0x01	; 1
     a38:	01 97       	sbiw	r24, 0x01	; 1
     a3a:	f1 f7       	brne	.-4      	; 0xa38 <adcPomiar_LD+0x86>
     a3c:	00 c0       	rjmp	.+0      	; 0xa3e <adcPomiar_LD+0x8c>
     a3e:	00 00       	nop
     a40:	d3 01       	movw	r26, r6
     a42:	15 96       	adiw	r26, 0x05	; 5
     a44:	bc 92       	st	X, r11
     a46:	b5 e3       	ldi	r27, 0x35	; 53
     a48:	ba 95       	dec	r27
     a4a:	f1 f7       	brne	.-4      	; 0xa48 <adcPomiar_LD+0x96>
     a4c:	00 00       	nop
     a4e:	80 a5       	ldd	r24, Z+40	; 0x28
     a50:	80 68       	ori	r24, 0x80	; 128
     a52:	80 a7       	std	Z+40, r24	; 0x28
     a54:	25 e3       	ldi	r18, 0x35	; 53
     a56:	2a 95       	dec	r18
     a58:	f1 f7       	brne	.-4      	; 0xa56 <adcPomiar_LD+0xa4>
     a5a:	00 00       	nop
     a5c:	d3 01       	movw	r26, r6
     a5e:	16 96       	adiw	r26, 0x06	; 6
     a60:	bc 92       	st	X, r11
     a62:	b5 ed       	ldi	r27, 0xD5	; 213
     a64:	ba 95       	dec	r27
     a66:	f1 f7       	brne	.-4      	; 0xa64 <adcPomiar_LD+0xb2>
     a68:	00 00       	nop
     a6a:	80 91 93 22 	lds	r24, 0x2293	; 0x802293 <adc_result_LF>
     a6e:	90 91 94 22 	lds	r25, 0x2294	; 0x802294 <adc_result_LF+0x1>
     a72:	81 33       	cpi	r24, 0x31	; 49
     a74:	25 e7       	ldi	r18, 0x75	; 117
     a76:	92 07       	cpc	r25, r18
     a78:	20 f4       	brcc	.+8      	; 0xa82 <adcPomiar_LD+0xd0>
     a7a:	d4 01       	movw	r26, r8
     a7c:	8d 93       	st	X+, r24
     a7e:	9c 93       	st	X, r25
     a80:	03 c0       	rjmp	.+6      	; 0xa88 <adcPomiar_LD+0xd6>
     a82:	d4 01       	movw	r26, r8
     a84:	1d 92       	st	X+, r1
     a86:	1c 92       	st	X, r1
     a88:	b2 e0       	ldi	r27, 0x02	; 2
     a8a:	8b 0e       	add	r8, r27
     a8c:	91 1c       	adc	r9, r1
     a8e:	6e 5f       	subi	r22, 0xFE	; 254
     a90:	7f 4f       	sbci	r23, 0xFF	; 255
     a92:	8c 14       	cp	r8, r12
     a94:	9d 04       	cpc	r9, r13
     a96:	09 f0       	breq	.+2      	; 0xa9a <adcPomiar_LD+0xe8>
     a98:	b3 cf       	rjmp	.-154    	; 0xa00 <adcPomiar_LD+0x4e>
     a9a:	be 01       	movw	r22, r28
     a9c:	67 5d       	subi	r22, 0xD7	; 215
     a9e:	7f 4f       	sbci	r23, 0xFF	; 255
     aa0:	20 e0       	ldi	r18, 0x00	; 0
     aa2:	30 e0       	ldi	r19, 0x00	; 0
     aa4:	fa 01       	movw	r30, r20
     aa6:	81 91       	ld	r24, Z+
     aa8:	91 91       	ld	r25, Z+
     aaa:	af 01       	movw	r20, r30
     aac:	08 0f       	add	r16, r24
     aae:	19 1f       	adc	r17, r25
     ab0:	d7 01       	movw	r26, r14
     ab2:	8d 91       	ld	r24, X+
     ab4:	9d 91       	ld	r25, X+
     ab6:	7d 01       	movw	r14, r26
     ab8:	28 0f       	add	r18, r24
     aba:	39 1f       	adc	r19, r25
     abc:	e6 17       	cp	r30, r22
     abe:	f7 07       	cpc	r31, r23
     ac0:	89 f7       	brne	.-30     	; 0xaa4 <adcPomiar_LD+0xf2>
     ac2:	ad ec       	ldi	r26, 0xCD	; 205
     ac4:	bc ec       	ldi	r27, 0xCC	; 204
     ac6:	0e 94 f4 14 	call	0x29e8	; 0x29e8 <__umulhisi3>
     aca:	ac 01       	movw	r20, r24
     acc:	56 95       	lsr	r21
     ace:	47 95       	ror	r20
     ad0:	56 95       	lsr	r21
     ad2:	47 95       	ror	r20
     ad4:	56 95       	lsr	r21
     ad6:	47 95       	ror	r20
     ad8:	98 01       	movw	r18, r16
     ada:	0e 94 f4 14 	call	0x29e8	; 0x29e8 <__umulhisi3>
     ade:	96 95       	lsr	r25
     ae0:	87 95       	ror	r24
     ae2:	92 95       	swap	r25
     ae4:	82 95       	swap	r24
     ae6:	8f 70       	andi	r24, 0x0F	; 15
     ae8:	89 27       	eor	r24, r25
     aea:	9f 70       	andi	r25, 0x0F	; 15
     aec:	89 27       	eor	r24, r25
     aee:	fa 01       	movw	r30, r20
     af0:	e8 1b       	sub	r30, r24
     af2:	f9 0b       	sbc	r31, r25
     af4:	cf 01       	movw	r24, r30
     af6:	81 33       	cpi	r24, 0x31	; 49
     af8:	f5 e7       	ldi	r31, 0x75	; 117
     afa:	9f 07       	cpc	r25, r31
     afc:	10 f0       	brcs	.+4      	; 0xb02 <adcPomiar_LD+0x150>
     afe:	80 e0       	ldi	r24, 0x00	; 0
     b00:	90 e0       	ldi	r25, 0x00	; 0
     b02:	a8 96       	adiw	r28, 0x28	; 40
     b04:	cd bf       	out	0x3d, r28	; 61
     b06:	de bf       	out	0x3e, r29	; 62
     b08:	df 91       	pop	r29
     b0a:	cf 91       	pop	r28
     b0c:	1f 91       	pop	r17
     b0e:	0f 91       	pop	r16
     b10:	ff 90       	pop	r15
     b12:	ef 90       	pop	r14
     b14:	df 90       	pop	r13
     b16:	cf 90       	pop	r12
     b18:	bf 90       	pop	r11
     b1a:	9f 90       	pop	r9
     b1c:	8f 90       	pop	r8
     b1e:	7f 90       	pop	r7
     b20:	6f 90       	pop	r6
     b22:	08 95       	ret

00000b24 <adcPomiar_RD>:
     b24:	6f 92       	push	r6
     b26:	7f 92       	push	r7
     b28:	8f 92       	push	r8
     b2a:	9f 92       	push	r9
     b2c:	bf 92       	push	r11
     b2e:	cf 92       	push	r12
     b30:	df 92       	push	r13
     b32:	ef 92       	push	r14
     b34:	ff 92       	push	r15
     b36:	0f 93       	push	r16
     b38:	1f 93       	push	r17
     b3a:	cf 93       	push	r28
     b3c:	df 93       	push	r29
     b3e:	cd b7       	in	r28, 0x3d	; 61
     b40:	de b7       	in	r29, 0x3e	; 62
     b42:	a8 97       	sbiw	r28, 0x28	; 40
     b44:	cd bf       	out	0x3d, r28	; 61
     b46:	de bf       	out	0x3e, r29	; 62
     b48:	9e 01       	movw	r18, r28
     b4a:	2f 5f       	subi	r18, 0xFF	; 255
     b4c:	3f 4f       	sbci	r19, 0xFF	; 255
     b4e:	79 01       	movw	r14, r18
     b50:	ae 01       	movw	r20, r28
     b52:	4b 5e       	subi	r20, 0xEB	; 235
     b54:	5f 4f       	sbci	r21, 0xFF	; 255
     b56:	6a 01       	movw	r12, r20
     b58:	ba 01       	movw	r22, r20
     b5a:	49 01       	movw	r8, r18
     b5c:	e0 e4       	ldi	r30, 0x40	; 64
     b5e:	f2 e0       	ldi	r31, 0x02	; 2
     b60:	0f 2e       	mov	r0, r31
     b62:	f0 e8       	ldi	r31, 0x80	; 128
     b64:	6f 2e       	mov	r6, r31
     b66:	f6 e0       	ldi	r31, 0x06	; 6
     b68:	7f 2e       	mov	r7, r31
     b6a:	f0 2d       	mov	r31, r0
     b6c:	68 94       	set
     b6e:	bb 24       	eor	r11, r11
     b70:	b5 f8       	bld	r11, 5
     b72:	3a e6       	ldi	r19, 0x6A	; 106
     b74:	3a 95       	dec	r19
     b76:	f1 f7       	brne	.-4      	; 0xb74 <adcPomiar_RD+0x50>
     b78:	00 c0       	rjmp	.+0      	; 0xb7a <adcPomiar_RD+0x56>
     b7a:	80 a9       	ldd	r24, Z+48	; 0x30
     b7c:	80 68       	ori	r24, 0x80	; 128
     b7e:	80 ab       	std	Z+48, r24	; 0x30
     b80:	85 ed       	ldi	r24, 0xD5	; 213
     b82:	8a 95       	dec	r24
     b84:	f1 f7       	brne	.-4      	; 0xb82 <adcPomiar_RD+0x5e>
     b86:	00 00       	nop
     b88:	80 91 98 23 	lds	r24, 0x2398	; 0x802398 <adc_result_RF>
     b8c:	90 91 99 23 	lds	r25, 0x2399	; 0x802399 <adc_result_RF+0x1>
     b90:	81 33       	cpi	r24, 0x31	; 49
     b92:	a5 e7       	ldi	r26, 0x75	; 117
     b94:	9a 07       	cpc	r25, r26
     b96:	20 f4       	brcc	.+8      	; 0xba0 <adcPomiar_RD+0x7c>
     b98:	db 01       	movw	r26, r22
     b9a:	8d 93       	st	X+, r24
     b9c:	9c 93       	st	X, r25
     b9e:	03 c0       	rjmp	.+6      	; 0xba6 <adcPomiar_RD+0x82>
     ba0:	db 01       	movw	r26, r22
     ba2:	1d 92       	st	X+, r1
     ba4:	1c 92       	st	X, r1
     ba6:	8f e8       	ldi	r24, 0x8F	; 143
     ba8:	91 e0       	ldi	r25, 0x01	; 1
     baa:	01 97       	sbiw	r24, 0x01	; 1
     bac:	f1 f7       	brne	.-4      	; 0xbaa <adcPomiar_RD+0x86>
     bae:	00 c0       	rjmp	.+0      	; 0xbb0 <adcPomiar_RD+0x8c>
     bb0:	00 00       	nop
     bb2:	d3 01       	movw	r26, r6
     bb4:	15 96       	adiw	r26, 0x05	; 5
     bb6:	bc 92       	st	X, r11
     bb8:	b5 e3       	ldi	r27, 0x35	; 53
     bba:	ba 95       	dec	r27
     bbc:	f1 f7       	brne	.-4      	; 0xbba <adcPomiar_RD+0x96>
     bbe:	00 00       	nop
     bc0:	80 a9       	ldd	r24, Z+48	; 0x30
     bc2:	80 68       	ori	r24, 0x80	; 128
     bc4:	80 ab       	std	Z+48, r24	; 0x30
     bc6:	25 e3       	ldi	r18, 0x35	; 53
     bc8:	2a 95       	dec	r18
     bca:	f1 f7       	brne	.-4      	; 0xbc8 <adcPomiar_RD+0xa4>
     bcc:	00 00       	nop
     bce:	d3 01       	movw	r26, r6
     bd0:	16 96       	adiw	r26, 0x06	; 6
     bd2:	bc 92       	st	X, r11
     bd4:	b5 ed       	ldi	r27, 0xD5	; 213
     bd6:	ba 95       	dec	r27
     bd8:	f1 f7       	brne	.-4      	; 0xbd6 <adcPomiar_RD+0xb2>
     bda:	00 00       	nop
     bdc:	80 91 98 23 	lds	r24, 0x2398	; 0x802398 <adc_result_RF>
     be0:	90 91 99 23 	lds	r25, 0x2399	; 0x802399 <adc_result_RF+0x1>
     be4:	81 33       	cpi	r24, 0x31	; 49
     be6:	25 e7       	ldi	r18, 0x75	; 117
     be8:	92 07       	cpc	r25, r18
     bea:	20 f4       	brcc	.+8      	; 0xbf4 <adcPomiar_RD+0xd0>
     bec:	d4 01       	movw	r26, r8
     bee:	8d 93       	st	X+, r24
     bf0:	9c 93       	st	X, r25
     bf2:	03 c0       	rjmp	.+6      	; 0xbfa <adcPomiar_RD+0xd6>
     bf4:	d4 01       	movw	r26, r8
     bf6:	1d 92       	st	X+, r1
     bf8:	1c 92       	st	X, r1
     bfa:	b2 e0       	ldi	r27, 0x02	; 2
     bfc:	8b 0e       	add	r8, r27
     bfe:	91 1c       	adc	r9, r1
     c00:	6e 5f       	subi	r22, 0xFE	; 254
     c02:	7f 4f       	sbci	r23, 0xFF	; 255
     c04:	8c 14       	cp	r8, r12
     c06:	9d 04       	cpc	r9, r13
     c08:	09 f0       	breq	.+2      	; 0xc0c <adcPomiar_RD+0xe8>
     c0a:	b3 cf       	rjmp	.-154    	; 0xb72 <adcPomiar_RD+0x4e>
     c0c:	be 01       	movw	r22, r28
     c0e:	67 5d       	subi	r22, 0xD7	; 215
     c10:	7f 4f       	sbci	r23, 0xFF	; 255
     c12:	20 e0       	ldi	r18, 0x00	; 0
     c14:	30 e0       	ldi	r19, 0x00	; 0
     c16:	fa 01       	movw	r30, r20
     c18:	81 91       	ld	r24, Z+
     c1a:	91 91       	ld	r25, Z+
     c1c:	af 01       	movw	r20, r30
     c1e:	08 0f       	add	r16, r24
     c20:	19 1f       	adc	r17, r25
     c22:	d7 01       	movw	r26, r14
     c24:	8d 91       	ld	r24, X+
     c26:	9d 91       	ld	r25, X+
     c28:	7d 01       	movw	r14, r26
     c2a:	28 0f       	add	r18, r24
     c2c:	39 1f       	adc	r19, r25
     c2e:	e6 17       	cp	r30, r22
     c30:	f7 07       	cpc	r31, r23
     c32:	89 f7       	brne	.-30     	; 0xc16 <adcPomiar_RD+0xf2>
     c34:	ad ec       	ldi	r26, 0xCD	; 205
     c36:	bc ec       	ldi	r27, 0xCC	; 204
     c38:	0e 94 f4 14 	call	0x29e8	; 0x29e8 <__umulhisi3>
     c3c:	ac 01       	movw	r20, r24
     c3e:	56 95       	lsr	r21
     c40:	47 95       	ror	r20
     c42:	56 95       	lsr	r21
     c44:	47 95       	ror	r20
     c46:	56 95       	lsr	r21
     c48:	47 95       	ror	r20
     c4a:	98 01       	movw	r18, r16
     c4c:	0e 94 f4 14 	call	0x29e8	; 0x29e8 <__umulhisi3>
     c50:	96 95       	lsr	r25
     c52:	87 95       	ror	r24
     c54:	92 95       	swap	r25
     c56:	82 95       	swap	r24
     c58:	8f 70       	andi	r24, 0x0F	; 15
     c5a:	89 27       	eor	r24, r25
     c5c:	9f 70       	andi	r25, 0x0F	; 15
     c5e:	89 27       	eor	r24, r25
     c60:	fa 01       	movw	r30, r20
     c62:	e8 1b       	sub	r30, r24
     c64:	f9 0b       	sbc	r31, r25
     c66:	cf 01       	movw	r24, r30
     c68:	81 33       	cpi	r24, 0x31	; 49
     c6a:	f5 e7       	ldi	r31, 0x75	; 117
     c6c:	9f 07       	cpc	r25, r31
     c6e:	10 f0       	brcs	.+4      	; 0xc74 <adcPomiar_RD+0x150>
     c70:	80 e0       	ldi	r24, 0x00	; 0
     c72:	90 e0       	ldi	r25, 0x00	; 0
     c74:	a8 96       	adiw	r28, 0x28	; 40
     c76:	cd bf       	out	0x3d, r28	; 61
     c78:	de bf       	out	0x3e, r29	; 62
     c7a:	df 91       	pop	r29
     c7c:	cf 91       	pop	r28
     c7e:	1f 91       	pop	r17
     c80:	0f 91       	pop	r16
     c82:	ff 90       	pop	r15
     c84:	ef 90       	pop	r14
     c86:	df 90       	pop	r13
     c88:	cf 90       	pop	r12
     c8a:	bf 90       	pop	r11
     c8c:	9f 90       	pop	r9
     c8e:	8f 90       	pop	r8
     c90:	7f 90       	pop	r7
     c92:	6f 90       	pop	r6
     c94:	08 95       	ret

00000c96 <setMotorL>:
     c96:	e0 e6       	ldi	r30, 0x60	; 96
     c98:	f6 e0       	ldi	r31, 0x06	; 6
     c9a:	88 e3       	ldi	r24, 0x38	; 56
     c9c:	81 83       	std	Z+1, r24	; 0x01
     c9e:	80 e2       	ldi	r24, 0x20	; 32
     ca0:	86 83       	std	Z+6, r24	; 0x06
     ca2:	80 e1       	ldi	r24, 0x10	; 16
     ca4:	86 83       	std	Z+6, r24	; 0x06
     ca6:	e0 e0       	ldi	r30, 0x00	; 0
     ca8:	f9 e0       	ldi	r31, 0x09	; 9
     caa:	83 e9       	ldi	r24, 0x93	; 147
     cac:	81 83       	std	Z+1, r24	; 0x01
     cae:	84 ef       	ldi	r24, 0xF4	; 244
     cb0:	91 e0       	ldi	r25, 0x01	; 1
     cb2:	86 a3       	std	Z+38, r24	; 0x26
     cb4:	97 a3       	std	Z+39, r25	; 0x27
     cb6:	16 a6       	std	Z+46, r1	; 0x2e
     cb8:	17 a6       	std	Z+47, r1	; 0x2f
     cba:	81 e0       	ldi	r24, 0x01	; 1
     cbc:	80 83       	st	Z, r24
     cbe:	08 95       	ret

00000cc0 <setMotorR>:
     cc0:	e0 e6       	ldi	r30, 0x60	; 96
     cc2:	f6 e0       	ldi	r31, 0x06	; 6
     cc4:	87 e0       	ldi	r24, 0x07	; 7
     cc6:	81 83       	std	Z+1, r24	; 0x01
     cc8:	82 e0       	ldi	r24, 0x02	; 2
     cca:	86 83       	std	Z+6, r24	; 0x06
     ccc:	84 e0       	ldi	r24, 0x04	; 4
     cce:	86 83       	std	Z+6, r24	; 0x06
     cd0:	10 92 28 09 	sts	0x0928, r1	; 0x800928 <__TEXT_REGION_LENGTH__+0x700928>
     cd4:	10 92 29 09 	sts	0x0929, r1	; 0x800929 <__TEXT_REGION_LENGTH__+0x700929>
     cd8:	08 95       	ret

00000cda <motorR>:
     cda:	08 2e       	mov	r0, r24
     cdc:	00 0c       	add	r0, r0
     cde:	99 0b       	sbc	r25, r25
     ce0:	9c 01       	movw	r18, r24
     ce2:	22 0f       	add	r18, r18
     ce4:	33 1f       	adc	r19, r19
     ce6:	22 0f       	add	r18, r18
     ce8:	33 1f       	adc	r19, r19
     cea:	82 0f       	add	r24, r18
     cec:	93 1f       	adc	r25, r19
     cee:	80 93 2e 09 	sts	0x092E, r24	; 0x80092e <__TEXT_REGION_LENGTH__+0x70092e>
     cf2:	90 93 2f 09 	sts	0x092F, r25	; 0x80092f <__TEXT_REGION_LENGTH__+0x70092f>
     cf6:	61 11       	cpse	r22, r1
     cf8:	07 c0       	rjmp	.+14     	; 0xd08 <motorR+0x2e>
     cfa:	e0 e6       	ldi	r30, 0x60	; 96
     cfc:	f6 e0       	ldi	r31, 0x06	; 6
     cfe:	80 e2       	ldi	r24, 0x20	; 32
     d00:	86 83       	std	Z+6, r24	; 0x06
     d02:	80 e1       	ldi	r24, 0x10	; 16
     d04:	86 83       	std	Z+6, r24	; 0x06
     d06:	08 95       	ret
     d08:	61 30       	cpi	r22, 0x01	; 1
     d0a:	39 f4       	brne	.+14     	; 0xd1a <motorR+0x40>
     d0c:	e0 e6       	ldi	r30, 0x60	; 96
     d0e:	f6 e0       	ldi	r31, 0x06	; 6
     d10:	80 e2       	ldi	r24, 0x20	; 32
     d12:	85 83       	std	Z+5, r24	; 0x05
     d14:	80 e1       	ldi	r24, 0x10	; 16
     d16:	85 83       	std	Z+5, r24	; 0x05
     d18:	08 95       	ret
     d1a:	62 30       	cpi	r22, 0x02	; 2
     d1c:	39 f4       	brne	.+14     	; 0xd2c <motorR+0x52>
     d1e:	e0 e6       	ldi	r30, 0x60	; 96
     d20:	f6 e0       	ldi	r31, 0x06	; 6
     d22:	80 e2       	ldi	r24, 0x20	; 32
     d24:	86 83       	std	Z+6, r24	; 0x06
     d26:	80 e1       	ldi	r24, 0x10	; 16
     d28:	85 83       	std	Z+5, r24	; 0x05
     d2a:	08 95       	ret
     d2c:	e0 e6       	ldi	r30, 0x60	; 96
     d2e:	f6 e0       	ldi	r31, 0x06	; 6
     d30:	80 e2       	ldi	r24, 0x20	; 32
     d32:	85 83       	std	Z+5, r24	; 0x05
     d34:	80 e1       	ldi	r24, 0x10	; 16
     d36:	86 83       	std	Z+6, r24	; 0x06
     d38:	08 95       	ret

00000d3a <motorL>:
     d3a:	08 2e       	mov	r0, r24
     d3c:	00 0c       	add	r0, r0
     d3e:	99 0b       	sbc	r25, r25
     d40:	9c 01       	movw	r18, r24
     d42:	22 0f       	add	r18, r18
     d44:	33 1f       	adc	r19, r19
     d46:	22 0f       	add	r18, r18
     d48:	33 1f       	adc	r19, r19
     d4a:	82 0f       	add	r24, r18
     d4c:	93 1f       	adc	r25, r19
     d4e:	80 93 28 09 	sts	0x0928, r24	; 0x800928 <__TEXT_REGION_LENGTH__+0x700928>
     d52:	90 93 29 09 	sts	0x0929, r25	; 0x800929 <__TEXT_REGION_LENGTH__+0x700929>
     d56:	61 11       	cpse	r22, r1
     d58:	07 c0       	rjmp	.+14     	; 0xd68 <motorL+0x2e>
     d5a:	e0 e6       	ldi	r30, 0x60	; 96
     d5c:	f6 e0       	ldi	r31, 0x06	; 6
     d5e:	82 e0       	ldi	r24, 0x02	; 2
     d60:	86 83       	std	Z+6, r24	; 0x06
     d62:	84 e0       	ldi	r24, 0x04	; 4
     d64:	86 83       	std	Z+6, r24	; 0x06
     d66:	08 95       	ret
     d68:	61 30       	cpi	r22, 0x01	; 1
     d6a:	39 f4       	brne	.+14     	; 0xd7a <motorL+0x40>
     d6c:	e0 e6       	ldi	r30, 0x60	; 96
     d6e:	f6 e0       	ldi	r31, 0x06	; 6
     d70:	82 e0       	ldi	r24, 0x02	; 2
     d72:	85 83       	std	Z+5, r24	; 0x05
     d74:	84 e0       	ldi	r24, 0x04	; 4
     d76:	85 83       	std	Z+5, r24	; 0x05
     d78:	08 95       	ret
     d7a:	62 30       	cpi	r22, 0x02	; 2
     d7c:	39 f4       	brne	.+14     	; 0xd8c <motorL+0x52>
     d7e:	e0 e6       	ldi	r30, 0x60	; 96
     d80:	f6 e0       	ldi	r31, 0x06	; 6
     d82:	82 e0       	ldi	r24, 0x02	; 2
     d84:	86 83       	std	Z+6, r24	; 0x06
     d86:	84 e0       	ldi	r24, 0x04	; 4
     d88:	85 83       	std	Z+5, r24	; 0x05
     d8a:	08 95       	ret
     d8c:	e0 e6       	ldi	r30, 0x60	; 96
     d8e:	f6 e0       	ldi	r31, 0x06	; 6
     d90:	82 e0       	ldi	r24, 0x02	; 2
     d92:	85 83       	std	Z+5, r24	; 0x05
     d94:	84 e0       	ldi	r24, 0x04	; 4
     d96:	86 83       	std	Z+6, r24	; 0x06
     d98:	08 95       	ret

00000d9a <setbat>:
}
void setbat(void){//funkcja ustawiajaca przerwanie na za niski poziom baterii
	// konfiguracja komparatora 0 w porcie A
	PORTF_OUTSET=PIN7_bm;
     d9a:	80 e8       	ldi	r24, 0x80	; 128
     d9c:	80 93 a5 06 	sts	0x06A5, r24	; 0x8006a5 <__TEXT_REGION_LENGTH__+0x7006a5>
	ACA.AC0MUXCTRL		=	AC_MUXPOS_PIN2_gc |
     da0:	e0 e8       	ldi	r30, 0x80	; 128
     da2:	f3 e0       	ldi	r31, 0x03	; 3
     da4:	87 e1       	ldi	r24, 0x17	; 23
     da6:	82 83       	std	Z+2, r24	; 0x02
	AC_MUXNEG_SCALER_gc;    // wejcie + PIN A6
	ACA.AC0CTRL			=	AC_ENABLE_bm|AC_HYSMODE_SMALL_gc|AC_INTLVL_LO_gc|AC_INTMODE_FALLING_gc;
     da8:	83 e9       	ldi	r24, 0x93	; 147
     daa:	80 83       	st	Z, r24
	ACA.CTRLB			=	45;                    // pocztkowe ustawienie dzielnika napicia
     dac:	8d e2       	ldi	r24, 0x2D	; 45
     dae:	85 83       	std	Z+5, r24	; 0x05
	ACA.CTRLA			=	AC_AC0OUT_bm;
     db0:	81 e0       	ldi	r24, 0x01	; 1
     db2:	84 83       	std	Z+4, r24	; 0x04
     db4:	08 95       	ret

00000db6 <setall>:
	else{
		PORTD.OUTSET	=	PIN1_bm;//input 1->1
		PORTD.OUTCLR	=	PIN2_bm;//input 2->0
	}
}
void setall(void){
     db6:	ef 92       	push	r14
     db8:	ff 92       	push	r15
     dba:	0f 93       	push	r16
     dbc:	1f 93       	push	r17
     dbe:	cf 93       	push	r28
     dc0:	df 93       	push	r29
	// ============================		wejscia		===========================================================================================
	
	//-----------------------------		przyciski	-----------------------------------------------------------------------
	PORTF.DIRCLR		=	PIN2_bm|PIN3_bm;					// pin F2 F3 jako wejcie
     dc2:	c0 ea       	ldi	r28, 0xA0	; 160
     dc4:	d6 e0       	ldi	r29, 0x06	; 6
     dc6:	8c e0       	ldi	r24, 0x0C	; 12
     dc8:	8a 83       	std	Y+2, r24	; 0x02
	PORTF.INT0MASK		=   PIN2_bm;               // pin F2 ma generowa przerwania INT0
     dca:	84 e0       	ldi	r24, 0x04	; 4
     dcc:	8a 87       	std	Y+10, r24	; 0x0a
	PORTF.INT1MASK		=   PIN3_bm;
     dce:	28 e0       	ldi	r18, 0x08	; 8
     dd0:	2b 87       	std	Y+11, r18	; 0x0b
	PORTF.PIN2CTRL		=   PORT_OPC_PULLUP_gc|    // pull-up na F2
     dd2:	8a e1       	ldi	r24, 0x1A	; 26
     dd4:	8a 8b       	std	Y+18, r24	; 0x12
							PORT_ISC_FALLING_gc;   // przerwanie wywouje zbocze opadajce
	PORTF.PIN3CTRL		=   PORT_OPC_PULLUP_gc|    // pull-up na F3
     dd6:	8b 8b       	std	Y+19, r24	; 0x13
							PORT_ISC_FALLING_gc;   // przerwanie wywouje zbocze opadajce
	PORTF.INTCTRL		=   PORT_INT0LVL_LO_gc| PORT_INT1LVL_LO_gc;   // poziom LO dla przerwania INT0 portu F2 F3
     dd8:	85 e0       	ldi	r24, 0x05	; 5
     dda:	89 87       	std	Y+9, r24	; 0x09
	//-------------------------------	enkodera R	------------------------------------------------------
	PORTC.PIN0CTRL		=	PORT_ISC_LEVEL_gc | PORT_OPC_PULLUP_gc;
     ddc:	e0 e4       	ldi	r30, 0x40	; 64
     dde:	f6 e0       	ldi	r31, 0x06	; 6
     de0:	8b e1       	ldi	r24, 0x1B	; 27
     de2:	80 8b       	std	Z+16, r24	; 0x10
	PORTC.PIN1CTRL		=	PORT_ISC_LEVEL_gc | PORT_OPC_PULLUP_gc;
     de4:	81 8b       	std	Z+17, r24	; 0x11
	EVSYS.CH0MUX		=   EVSYS_CHMUX_PORTC_PIN0_gc;        // pin C0 wywouje zdarzenie
     de6:	e0 e8       	ldi	r30, 0x80	; 128
     de8:	f1 e0       	ldi	r31, 0x01	; 1
     dea:	90 e6       	ldi	r25, 0x60	; 96
     dec:	90 83       	st	Z, r25
	EVSYS.CH0CTRL		=   EVSYS_QDEN_bm|                    // wczenie dekodera w systemie zdarze
     dee:	9f e0       	ldi	r25, 0x0F	; 15
     df0:	90 87       	std	Z+8, r25	; 0x08
							EVSYS_DIGFILT_8SAMPLES_gc;        // filtr cyfrowy
	TCC0.CTRLA			=   TC_CLKSEL_EVCH0_gc;               // taktowanie systemem zdarze
     df2:	00 e0       	ldi	r16, 0x00	; 0
     df4:	18 e0       	ldi	r17, 0x08	; 8
     df6:	d8 01       	movw	r26, r16
     df8:	2c 93       	st	X, r18
	TCC0.CTRLD			=   TC_EVACT_QDEC_gc |                // wczenie dekodera kwadraturowego
     dfa:	28 e6       	ldi	r18, 0x68	; 104
     dfc:	13 96       	adiw	r26, 0x03	; 3
     dfe:	2c 93       	st	X, r18
							TC_EVSEL_CH0_gc;                  // dekoder zlicza impulsy z kanau 0*/
	//-------------------------------	enkodera L	------------------------------------------------------
	PORTF.PIN0CTRL		=	PORT_ISC_LEVEL_gc | PORT_OPC_PULLUP_gc;
     e00:	88 8b       	std	Y+16, r24	; 0x10
	PORTF.PIN1CTRL		=	PORT_ISC_LEVEL_gc | PORT_OPC_PULLUP_gc;
     e02:	89 8b       	std	Y+17, r24	; 0x11
	EVSYS.CH2MUX		=   EVSYS_CHMUX_PORTF_PIN0_gc;        // pin E0 wywouje zdarzenie
     e04:	88 e7       	ldi	r24, 0x78	; 120
     e06:	82 83       	std	Z+2, r24	; 0x02
	EVSYS.CH2CTRL		=   EVSYS_QDEN_bm|                    // wczenie dekodera w systemie zdarze
     e08:	92 87       	std	Z+10, r25	; 0x0a
							EVSYS_DIGFILT_8SAMPLES_gc;        // filtr cyfrowy
	TCF0.CTRLA			=   TC_CLKSEL_EVCH2_gc;               // taktowanie systemem zdarze
     e0a:	0f 2e       	mov	r0, r31
     e0c:	e1 2c       	mov	r14, r1
     e0e:	fb e0       	ldi	r31, 0x0B	; 11
     e10:	ff 2e       	mov	r15, r31
     e12:	f0 2d       	mov	r31, r0
     e14:	8a e0       	ldi	r24, 0x0A	; 10
     e16:	f7 01       	movw	r30, r14
     e18:	80 83       	st	Z, r24
	TCF0.CTRLD			=   TC_EVACT_QDEC_gc |                // wczenie dekodera kwadraturowego
     e1a:	8a e6       	ldi	r24, 0x6A	; 106
     e1c:	83 83       	std	Z+3, r24	; 0x03
							TC_EVSEL_CH2_gc;                  // dekoder zlicza impulsy z kanau 0*/	
	//==============================	wyjscia		=========================================================
	setMotorL();
     e1e:	3b df       	rcall	.-394    	; 0xc96 <setMotorL>
	setMotorR();
     e20:	4f df       	rcall	.-354    	; 0xcc0 <setMotorR>
	//-----------------------------------diody IR--------------------------------------
	PORTE.DIRSET		=	PIN5_bm|
     e22:	e0 e8       	ldi	r30, 0x80	; 128
     e24:	f6 e0       	ldi	r31, 0x06	; 6
     e26:	80 ef       	ldi	r24, 0xF0	; 240
     e28:	81 83       	std	Z+1, r24	; 0x01
							PIN4_bm|
							PIN6_bm|
							PIN7_bm;
	PORTE.OUTCLR		=	PIN5_bm|
     e2a:	86 83       	std	Z+6, r24	; 0x06
							PIN4_bm|
							PIN6_bm|
							PIN7_bm;
//-----------------------------------diody LED--------------------------------------
	PORTF.DIRSET		=	PIN5_bm|
     e2c:	80 ee       	ldi	r24, 0xE0	; 224
     e2e:	89 83       	std	Y+1, r24	; 0x01
							PIN6_bm|
							PIN7_bm;
	PORTF.OUTCLR		=	PIN5_bm|
     e30:	8e 83       	std	Y+6, r24	; 0x06
							PIN6_bm|
							PIN7_bm;  
	// ----------------------------		LCD		------------------------------
	
	setADC();
     e32:	1f dc       	rcall	.-1986   	; 0x672 <setADC>
	setbat();
     e34:	b2 df       	rcall	.-156    	; 0xd9a <setbat>
	bluetooth_init();
     e36:	1e da       	rcall	.-3012   	; 0x274 <bluetooth_init>
	//LcdInit();
	
	TWI_MasterInit(); 
     e38:	e8 da       	rcall	.-2608   	; 0x40a <TWI_MasterInit>
	enableDefault();
     e3a:	10 db       	rcall	.-2528   	; 0x45c <enableDefault>
	
	
	TCD1.INTCTRLA     =    TC_OVFINTLVL_LO_gc;         // przepenienie ma generowa przerwanie LO
     e3c:	a0 e4       	ldi	r26, 0x40	; 64
     e3e:	b9 e0       	ldi	r27, 0x09	; 9
     e40:	81 e0       	ldi	r24, 0x01	; 1
     e42:	16 96       	adiw	r26, 0x06	; 6
     e44:	8c 93       	st	X, r24
     e46:	16 97       	sbiw	r26, 0x06	; 6
	
	TCD1.CTRLB        =    TC_WGMODE_NORMAL_gc;        // tryb normalny
     e48:	11 96       	adiw	r26, 0x01	; 1
     e4a:	1c 92       	st	X, r1
     e4c:	11 97       	sbiw	r26, 0x01	; 1
	
	TCD1.PER = 156*5;
     e4e:	8c e0       	ldi	r24, 0x0C	; 12
     e50:	93 e0       	ldi	r25, 0x03	; 3
     e52:	96 96       	adiw	r26, 0x26	; 38
     e54:	8d 93       	st	X+, r24
     e56:	9c 93       	st	X, r25
     e58:	97 97       	sbiw	r26, 0x27	; 39
	
	TCC1.INTCTRLA     =    TC_OVFINTLVL_HI_gc;         // przepenienie ma generowa przerwanie LO
     e5a:	e0 e4       	ldi	r30, 0x40	; 64
     e5c:	f8 e0       	ldi	r31, 0x08	; 8
     e5e:	83 e0       	ldi	r24, 0x03	; 3
     e60:	86 83       	std	Z+6, r24	; 0x06
	
	TCC1.CTRLB        =    TC_WGMODE_NORMAL_gc;        // tryb normalny
     e62:	11 82       	std	Z+1, r1	; 0x01
	
	TCC1.PER = 156;
     e64:	8c e9       	ldi	r24, 0x9C	; 156
     e66:	90 e0       	ldi	r25, 0x00	; 0
     e68:	86 a3       	std	Z+38, r24	; 0x26
     e6a:	97 a3       	std	Z+39, r25	; 0x27
	TCD1.CTRLA        =    TC_CLKSEL_DIV1024_gc;
     e6c:	87 e0       	ldi	r24, 0x07	; 7
     e6e:	8c 93       	st	X, r24
	TCC1.CTRLA        =    TC_CLKSEL_DIV1024_gc;
     e70:	80 83       	st	Z, r24
	sei();
     e72:	78 94       	sei
	L_ENKODER=0;
     e74:	d8 01       	movw	r26, r16
     e76:	90 96       	adiw	r26, 0x20	; 32
     e78:	1d 92       	st	X+, r1
     e7a:	1c 92       	st	X, r1
     e7c:	91 97       	sbiw	r26, 0x21	; 33
	R_ENKODER=0;
     e7e:	f7 01       	movw	r30, r14
     e80:	10 a2       	std	Z+32, r1	; 0x20
     e82:	11 a2       	std	Z+33, r1	; 0x21

	
}
     e84:	df 91       	pop	r29
     e86:	cf 91       	pop	r28
     e88:	1f 91       	pop	r17
     e8a:	0f 91       	pop	r16
     e8c:	ff 90       	pop	r15
     e8e:	ef 90       	pop	r14
     e90:	08 95       	ret

00000e92 <__vector_39>:
int pomiar=0;
int wyslij=0;
int tabsend[1000];
int pomiary[4][5];
// Interrupt Service Routine for handling the ADC conversion complete interrupt
ISR(ADCB_CH0_vect) {
     e92:	1f 92       	push	r1
     e94:	0f 92       	push	r0
     e96:	0f b6       	in	r0, 0x3f	; 63
     e98:	0f 92       	push	r0
     e9a:	11 24       	eor	r1, r1
     e9c:	8f 93       	push	r24
     e9e:	9f 93       	push	r25
	adc_result_LD = ADCB.CH0RES;
     ea0:	80 91 50 02 	lds	r24, 0x0250	; 0x800250 <__TEXT_REGION_LENGTH__+0x700250>
     ea4:	90 91 51 02 	lds	r25, 0x0251	; 0x800251 <__TEXT_REGION_LENGTH__+0x700251>
     ea8:	80 93 9b 24 	sts	0x249B, r24	; 0x80249b <adc_result_LD>
     eac:	90 93 9c 24 	sts	0x249C, r25	; 0x80249c <adc_result_LD+0x1>
}
     eb0:	9f 91       	pop	r25
     eb2:	8f 91       	pop	r24
     eb4:	0f 90       	pop	r0
     eb6:	0f be       	out	0x3f, r0	; 63
     eb8:	0f 90       	pop	r0
     eba:	1f 90       	pop	r1
     ebc:	18 95       	reti

00000ebe <__vector_40>:
ISR(ADCB_CH1_vect) {
     ebe:	1f 92       	push	r1
     ec0:	0f 92       	push	r0
     ec2:	0f b6       	in	r0, 0x3f	; 63
     ec4:	0f 92       	push	r0
     ec6:	11 24       	eor	r1, r1
     ec8:	8f 93       	push	r24
     eca:	9f 93       	push	r25
	adc_result_LF = ADCB.CH1RES;
     ecc:	80 91 52 02 	lds	r24, 0x0252	; 0x800252 <__TEXT_REGION_LENGTH__+0x700252>
     ed0:	90 91 53 02 	lds	r25, 0x0253	; 0x800253 <__TEXT_REGION_LENGTH__+0x700253>
     ed4:	80 93 93 22 	sts	0x2293, r24	; 0x802293 <adc_result_LF>
     ed8:	90 93 94 22 	sts	0x2294, r25	; 0x802294 <adc_result_LF+0x1>
}
     edc:	9f 91       	pop	r25
     ede:	8f 91       	pop	r24
     ee0:	0f 90       	pop	r0
     ee2:	0f be       	out	0x3f, r0	; 63
     ee4:	0f 90       	pop	r0
     ee6:	1f 90       	pop	r1
     ee8:	18 95       	reti

00000eea <__vector_41>:
ISR(ADCB_CH2_vect) {
     eea:	1f 92       	push	r1
     eec:	0f 92       	push	r0
     eee:	0f b6       	in	r0, 0x3f	; 63
     ef0:	0f 92       	push	r0
     ef2:	11 24       	eor	r1, r1
     ef4:	8f 93       	push	r24
     ef6:	9f 93       	push	r25
	adc_result_RF = ADCB.CH2RES;
     ef8:	80 91 54 02 	lds	r24, 0x0254	; 0x800254 <__TEXT_REGION_LENGTH__+0x700254>
     efc:	90 91 55 02 	lds	r25, 0x0255	; 0x800255 <__TEXT_REGION_LENGTH__+0x700255>
     f00:	80 93 98 23 	sts	0x2398, r24	; 0x802398 <adc_result_RF>
     f04:	90 93 99 23 	sts	0x2399, r25	; 0x802399 <adc_result_RF+0x1>
}
     f08:	9f 91       	pop	r25
     f0a:	8f 91       	pop	r24
     f0c:	0f 90       	pop	r0
     f0e:	0f be       	out	0x3f, r0	; 63
     f10:	0f 90       	pop	r0
     f12:	1f 90       	pop	r1
     f14:	18 95       	reti

00000f16 <__vector_42>:
ISR(ADCB_CH3_vect) {
     f16:	1f 92       	push	r1
     f18:	0f 92       	push	r0
     f1a:	0f b6       	in	r0, 0x3f	; 63
     f1c:	0f 92       	push	r0
     f1e:	11 24       	eor	r1, r1
     f20:	8f 93       	push	r24
     f22:	9f 93       	push	r25
	adc_result_RD = ADCB.CH3RES;
     f24:	80 91 56 02 	lds	r24, 0x0256	; 0x800256 <__TEXT_REGION_LENGTH__+0x700256>
     f28:	90 91 57 02 	lds	r25, 0x0257	; 0x800257 <__TEXT_REGION_LENGTH__+0x700257>
     f2c:	80 93 9f 25 	sts	0x259F, r24	; 0x80259f <adc_result_RD>
     f30:	90 93 a0 25 	sts	0x25A0, r25	; 0x8025a0 <adc_result_RD+0x1>
}
     f34:	9f 91       	pop	r25
     f36:	8f 91       	pop	r24
     f38:	0f 90       	pop	r0
     f3a:	0f be       	out	0x3f, r0	; 63
     f3c:	0f 90       	pop	r0
     f3e:	1f 90       	pop	r1
     f40:	18 95       	reti

00000f42 <__vector_104>:
//Przerwanie przycisk dol
ISR(PORTF_INT0_vect){
     f42:	1f 92       	push	r1
     f44:	0f 92       	push	r0
     f46:	0f b6       	in	r0, 0x3f	; 63
     f48:	0f 92       	push	r0
     f4a:	11 24       	eor	r1, r1
		
}
     f4c:	0f 90       	pop	r0
     f4e:	0f be       	out	0x3f, r0	; 63
     f50:	0f 90       	pop	r0
     f52:	1f 90       	pop	r1
     f54:	18 95       	reti

00000f56 <__vector_105>:
//Przerwanie przycisk gora
ISR(PORTF_INT1_vect){	
     f56:	1f 92       	push	r1
     f58:	0f 92       	push	r0
     f5a:	0f b6       	in	r0, 0x3f	; 63
     f5c:	0f 92       	push	r0
     f5e:	11 24       	eor	r1, r1
     f60:	0b b6       	in	r0, 0x3b	; 59
     f62:	0f 92       	push	r0
     f64:	2f 93       	push	r18
     f66:	3f 93       	push	r19
     f68:	4f 93       	push	r20
     f6a:	5f 93       	push	r21
     f6c:	6f 93       	push	r22
     f6e:	7f 93       	push	r23
     f70:	8f 93       	push	r24
     f72:	9f 93       	push	r25
     f74:	af 93       	push	r26
     f76:	bf 93       	push	r27
     f78:	ef 93       	push	r30
     f7a:	ff 93       	push	r31
     f7c:	2f ef       	ldi	r18, 0xFF	; 255
     f7e:	83 ed       	ldi	r24, 0xD3	; 211
     f80:	90 e3       	ldi	r25, 0x30	; 48
     f82:	21 50       	subi	r18, 0x01	; 1
     f84:	80 40       	sbci	r24, 0x00	; 0
     f86:	90 40       	sbci	r25, 0x00	; 0
     f88:	e1 f7       	brne	.-8      	; 0xf82 <__vector_105+0x2c>
     f8a:	00 c0       	rjmp	.+0      	; 0xf8c <__vector_105+0x36>
     f8c:	00 00       	nop
	_delay_ms(500);
	rotateAngle(PI/2);
     f8e:	6a ed       	ldi	r22, 0xDA	; 218
     f90:	7f e0       	ldi	r23, 0x0F	; 15
     f92:	89 ec       	ldi	r24, 0xC9	; 201
     f94:	9f e3       	ldi	r25, 0x3F	; 63
     f96:	0e 94 d1 0f 	call	0x1fa2	; 0x1fa2 <rotateAngle>
}
     f9a:	ff 91       	pop	r31
     f9c:	ef 91       	pop	r30
     f9e:	bf 91       	pop	r27
     fa0:	af 91       	pop	r26
     fa2:	9f 91       	pop	r25
     fa4:	8f 91       	pop	r24
     fa6:	7f 91       	pop	r23
     fa8:	6f 91       	pop	r22
     faa:	5f 91       	pop	r21
     fac:	4f 91       	pop	r20
     fae:	3f 91       	pop	r19
     fb0:	2f 91       	pop	r18
     fb2:	0f 90       	pop	r0
     fb4:	0b be       	out	0x3b, r0	; 59
     fb6:	0f 90       	pop	r0
     fb8:	0f be       	out	0x3f, r0	; 63
     fba:	0f 90       	pop	r0
     fbc:	1f 90       	pop	r1
     fbe:	18 95       	reti

00000fc0 <__vector_68>:

ISR(ACA_AC0_vect){
     fc0:	1f 92       	push	r1
     fc2:	0f 92       	push	r0
     fc4:	0f b6       	in	r0, 0x3f	; 63
     fc6:	0f 92       	push	r0
     fc8:	11 24       	eor	r1, r1
     fca:	8f 93       	push	r24
	PORTF_OUTTGL=PIN7_bm;
     fcc:	80 e8       	ldi	r24, 0x80	; 128
     fce:	80 93 a7 06 	sts	0x06A7, r24	; 0x8006a7 <__TEXT_REGION_LENGTH__+0x7006a7>

}
     fd2:	8f 91       	pop	r24
     fd4:	0f 90       	pop	r0
     fd6:	0f be       	out	0x3f, r0	; 63
     fd8:	0f 90       	pop	r0
     fda:	1f 90       	pop	r1
     fdc:	18 95       	reti

00000fde <__vector_83>:

int16_t roznica_czujnikow;
int refR=0;
int refL=0;
ISR(TCD1_OVF_vect){
     fde:	1f 92       	push	r1
     fe0:	0f 92       	push	r0
     fe2:	0f b6       	in	r0, 0x3f	; 63
     fe4:	0f 92       	push	r0
     fe6:	11 24       	eor	r1, r1
     fe8:	0b b6       	in	r0, 0x3b	; 59
     fea:	0f 92       	push	r0
     fec:	2f 93       	push	r18
     fee:	3f 93       	push	r19
     ff0:	4f 93       	push	r20
     ff2:	5f 93       	push	r21
     ff4:	6f 93       	push	r22
     ff6:	7f 93       	push	r23
     ff8:	8f 93       	push	r24
     ffa:	9f 93       	push	r25
     ffc:	af 93       	push	r26
     ffe:	bf 93       	push	r27
    1000:	ef 93       	push	r30
    1002:	ff 93       	push	r31
	pomiarr=adcPomiar_RD();
    1004:	8f dd       	rcall	.-1250   	; 0xb24 <adcPomiar_RD>
    1006:	80 93 d3 26 	sts	0x26D3, r24	; 0x8026d3 <pomiarr>
    100a:	90 93 d4 26 	sts	0x26D4, r25	; 0x8026d4 <pomiarr+0x1>
	pomiarl=adcPomiar_LD();
    100e:	d1 dc       	rcall	.-1630   	; 0x9b2 <adcPomiar_LD>
    1010:	80 93 d5 26 	sts	0x26D5, r24	; 0x8026d5 <pomiarl>
    1014:	90 93 d6 26 	sts	0x26D6, r25	; 0x8026d6 <pomiarl+0x1>
	pomiarfr=adcPomiar_RF();
    1018:	64 db       	rcall	.-2360   	; 0x6e2 <adcPomiar_RF>
    101a:	80 93 a1 26 	sts	0x26A1, r24	; 0x8026a1 <pomiarfr>
    101e:	90 93 a2 26 	sts	0x26A2, r25	; 0x8026a2 <pomiarfr+0x1>
	pomiarfl=adcPomiar_LF();
    1022:	13 dc       	rcall	.-2010   	; 0x84a <adcPomiar_LF>
    1024:	80 93 c5 26 	sts	0x26C5, r24	; 0x8026c5 <pomiarfl>
    1028:	90 93 c6 26 	sts	0x26C6, r25	; 0x8026c6 <pomiarfl+0x1>
    102c:	6f ea       	ldi	r22, 0xAF	; 175
    102e:	7e e2       	ldi	r23, 0x2E	; 46
    1030:	a7 ea       	ldi	r26, 0xA7	; 167
    1032:	be e2       	ldi	r27, 0x2E	; 46
    1034:	0f c0       	rjmp	.+30     	; 0x1054 <__vector_83+0x76>
	
	
	int i,j;
	for(i=4;i>0;i--)
	   for(j=0;j<4;j++)
	       pomiary[j][i]=pomiary[j][i-1];
    1036:	40 81       	ld	r20, Z
    1038:	51 81       	ldd	r21, Z+1	; 0x01
    103a:	42 83       	std	Z+2, r20	; 0x02
    103c:	53 83       	std	Z+3, r21	; 0x03
    103e:	21 50       	subi	r18, 0x01	; 1
    1040:	31 09       	sbc	r19, r1
    1042:	3a 96       	adiw	r30, 0x0a	; 10
	pomiarfl=adcPomiar_LF();
	
	
	int i,j;
	for(i=4;i>0;i--)
	   for(j=0;j<4;j++)
    1044:	21 15       	cp	r18, r1
    1046:	31 05       	cpc	r19, r1
    1048:	b1 f7       	brne	.-20     	; 0x1036 <__vector_83+0x58>
    104a:	62 50       	subi	r22, 0x02	; 2
    104c:	71 09       	sbc	r23, r1
	pomiarfr=adcPomiar_RF();
	pomiarfl=adcPomiar_LF();
	
	
	int i,j;
	for(i=4;i>0;i--)
    104e:	6a 17       	cp	r22, r26
    1050:	7b 07       	cpc	r23, r27
    1052:	21 f0       	breq	.+8      	; 0x105c <__vector_83+0x7e>
}

int16_t roznica_czujnikow;
int refR=0;
int refL=0;
ISR(TCD1_OVF_vect){
    1054:	fb 01       	movw	r30, r22
    1056:	24 e0       	ldi	r18, 0x04	; 4
    1058:	30 e0       	ldi	r19, 0x00	; 0
    105a:	ed cf       	rjmp	.-38     	; 0x1036 <__vector_83+0x58>
	int i,j;
	for(i=4;i>0;i--)
	   for(j=0;j<4;j++)
	       pomiary[j][i]=pomiary[j][i-1];
	
	pomiary[0][0]  =pomiarr;
    105c:	20 91 d3 26 	lds	r18, 0x26D3	; 0x8026d3 <pomiarr>
    1060:	30 91 d4 26 	lds	r19, 0x26D4	; 0x8026d4 <pomiarr+0x1>
    1064:	e9 ea       	ldi	r30, 0xA9	; 169
    1066:	fe e2       	ldi	r31, 0x2E	; 46
    1068:	20 83       	st	Z, r18
    106a:	31 83       	std	Z+1, r19	; 0x01
	pomiary[1][0]  =pomiarl;
    106c:	40 91 d5 26 	lds	r20, 0x26D5	; 0x8026d5 <pomiarl>
    1070:	50 91 d6 26 	lds	r21, 0x26D6	; 0x8026d6 <pomiarl+0x1>
    1074:	42 87       	std	Z+10, r20	; 0x0a
    1076:	53 87       	std	Z+11, r21	; 0x0b
	pomiary[2][0]  =pomiarfr;
    1078:	60 91 a1 26 	lds	r22, 0x26A1	; 0x8026a1 <pomiarfr>
    107c:	70 91 a2 26 	lds	r23, 0x26A2	; 0x8026a2 <pomiarfr+0x1>
    1080:	64 8b       	std	Z+20, r22	; 0x14
    1082:	75 8b       	std	Z+21, r23	; 0x15
	pomiary[3][0]  =pomiarfl;
    1084:	86 8f       	std	Z+30, r24	; 0x1e
    1086:	97 8f       	std	Z+31, r25	; 0x1f
	
	stan_T = JAZDA;
    1088:	10 92 82 20 	sts	0x2082, r1	; 0x802082 <stan_T>
    108c:	10 92 83 20 	sts	0x2083, r1	; 0x802083 <stan_T+0x1>
	
	
	if(((pomiarr)>100)&&((pomiarl)>100))
    1090:	25 36       	cpi	r18, 0x65	; 101
    1092:	31 05       	cpc	r19, r1
    1094:	34 f1       	brlt	.+76     	; 0x10e2 <__vector_83+0x104>
    1096:	45 36       	cpi	r20, 0x65	; 101
    1098:	51 05       	cpc	r21, r1
    109a:	84 f0       	brlt	.+32     	; 0x10bc <__vector_83+0xde>
		{
			roznica_czujnikow=pomiarl-pomiarr;
    109c:	ca 01       	movw	r24, r20
    109e:	82 1b       	sub	r24, r18
    10a0:	93 0b       	sbc	r25, r19
    10a2:	80 93 d1 2e 	sts	0x2ED1, r24	; 0x802ed1 <roznica_czujnikow>
    10a6:	90 93 d2 2e 	sts	0x2ED2, r25	; 0x802ed2 <roznica_czujnikow+0x1>
			refR=pomiarr;
    10aa:	20 93 6a 20 	sts	0x206A, r18	; 0x80206a <refR>
    10ae:	30 93 6b 20 	sts	0x206B, r19	; 0x80206b <refR+0x1>
			refL=pomiarl;
    10b2:	40 93 68 20 	sts	0x2068, r20	; 0x802068 <__data_end>
    10b6:	50 93 69 20 	sts	0x2069, r21	; 0x802069 <__data_end+0x1>
    10ba:	35 c0       	rjmp	.+106    	; 0x1126 <__vector_83+0x148>
		}
	else if ((pomiarr>100)&&(pomiarl<100) && (pomiarfl+pomiarfr<800))
    10bc:	44 36       	cpi	r20, 0x64	; 100
    10be:	51 05       	cpc	r21, r1
    10c0:	34 f5       	brge	.+76     	; 0x110e <__vector_83+0x130>
    10c2:	86 0f       	add	r24, r22
    10c4:	97 1f       	adc	r25, r23
    10c6:	80 32       	cpi	r24, 0x20	; 32
    10c8:	93 40       	sbci	r25, 0x03	; 3
    10ca:	0c f5       	brge	.+66     	; 0x110e <__vector_83+0x130>
	    {
			roznica_czujnikow=refR-pomiarr;
    10cc:	80 91 6a 20 	lds	r24, 0x206A	; 0x80206a <refR>
    10d0:	90 91 6b 20 	lds	r25, 0x206B	; 0x80206b <refR+0x1>
    10d4:	82 1b       	sub	r24, r18
    10d6:	93 0b       	sbc	r25, r19
    10d8:	80 93 d1 2e 	sts	0x2ED1, r24	; 0x802ed1 <roznica_czujnikow>
    10dc:	90 93 d2 2e 	sts	0x2ED2, r25	; 0x802ed2 <roznica_czujnikow+0x1>
    10e0:	22 c0       	rjmp	.+68     	; 0x1126 <__vector_83+0x148>
		}
	
	else if ((pomiarr<100)&&(pomiarl>100) && (pomiarfl+pomiarfr<800))	
    10e2:	24 36       	cpi	r18, 0x64	; 100
    10e4:	31 05       	cpc	r19, r1
    10e6:	9c f4       	brge	.+38     	; 0x110e <__vector_83+0x130>
    10e8:	45 36       	cpi	r20, 0x65	; 101
    10ea:	51 05       	cpc	r21, r1
    10ec:	84 f0       	brlt	.+32     	; 0x110e <__vector_83+0x130>
    10ee:	86 0f       	add	r24, r22
    10f0:	97 1f       	adc	r25, r23
    10f2:	80 32       	cpi	r24, 0x20	; 32
    10f4:	93 40       	sbci	r25, 0x03	; 3
    10f6:	5c f4       	brge	.+22     	; 0x110e <__vector_83+0x130>
		{
			roznica_czujnikow=-refL+pomiarl;
    10f8:	80 91 68 20 	lds	r24, 0x2068	; 0x802068 <__data_end>
    10fc:	90 91 69 20 	lds	r25, 0x2069	; 0x802069 <__data_end+0x1>
    1100:	48 1b       	sub	r20, r24
    1102:	59 0b       	sbc	r21, r25
    1104:	40 93 d1 2e 	sts	0x2ED1, r20	; 0x802ed1 <roznica_czujnikow>
    1108:	50 93 d2 2e 	sts	0x2ED2, r21	; 0x802ed2 <roznica_czujnikow+0x1>
    110c:	0c c0       	rjmp	.+24     	; 0x1126 <__vector_83+0x148>
		}
	else 
	{ 
		roznica_czujnikow=0;
    110e:	10 92 d1 2e 	sts	0x2ED1, r1	; 0x802ed1 <roznica_czujnikow>
    1112:	10 92 d2 2e 	sts	0x2ED2, r1	; 0x802ed2 <roznica_czujnikow+0x1>
	}
	
	
	
	if(flaga_czuj==1)
    1116:	80 91 c7 26 	lds	r24, 0x26C7	; 0x8026c7 <flaga_czuj>
    111a:	90 91 c8 26 	lds	r25, 0x26C8	; 0x8026c8 <flaga_czuj+0x1>
    111e:	01 97       	sbiw	r24, 0x01	; 1
    1120:	09 f0       	breq	.+2      	; 0x1124 <__vector_83+0x146>
    1122:	6f c0       	rjmp	.+222    	; 0x1202 <__vector_83+0x224>
    1124:	66 c0       	rjmp	.+204    	; 0x11f2 <__vector_83+0x214>
    1126:	80 91 c7 26 	lds	r24, 0x26C7	; 0x8026c7 <flaga_czuj>
    112a:	90 91 c8 26 	lds	r25, 0x26C8	; 0x8026c8 <flaga_czuj+0x1>
    112e:	01 97       	sbiw	r24, 0x01	; 1
    1130:	09 f0       	breq	.+2      	; 0x1134 <__vector_83+0x156>
    1132:	67 c0       	rjmp	.+206    	; 0x1202 <__vector_83+0x224>
	{
		if(roznica_czujnikow>0)
    1134:	80 91 d1 2e 	lds	r24, 0x2ED1	; 0x802ed1 <roznica_czujnikow>
    1138:	90 91 d2 2e 	lds	r25, 0x2ED2	; 0x802ed2 <roznica_czujnikow+0x1>
    113c:	18 16       	cp	r1, r24
    113e:	19 06       	cpc	r1, r25
    1140:	5c f5       	brge	.+86     	; 0x1198 <__vector_83+0x1ba>
		    {
			docelowa_T_8=-10;//roznica_czujnikow/parametrp; minus skreca w lewo
    1142:	26 ef       	ldi	r18, 0xF6	; 246
    1144:	3f ef       	ldi	r19, 0xFF	; 255
    1146:	20 93 20 20 	sts	0x2020, r18	; 0x802020 <docelowa_T_8>
    114a:	30 93 21 20 	sts	0x2021, r19	; 0x802021 <docelowa_T_8+0x1>
			target_T=lookup(roznica_czujnikow)*(aktualna_V_8/30)*537.6;
    114e:	dc d1       	rcall	.+952    	; 0x1508 <lookup>
    1150:	fc 01       	movw	r30, r24
    1152:	80 91 86 20 	lds	r24, 0x2086	; 0x802086 <aktualna_V_8>
    1156:	90 91 87 20 	lds	r25, 0x2087	; 0x802087 <aktualna_V_8+0x1>
    115a:	6e e1       	ldi	r22, 0x1E	; 30
    115c:	70 e0       	ldi	r23, 0x00	; 0
    115e:	0e 94 e1 14 	call	0x29c2	; 0x29c2 <__divmodhi4>
    1162:	9b 01       	movw	r18, r22
    1164:	e2 9f       	mul	r30, r18
    1166:	b0 01       	movw	r22, r0
    1168:	e3 9f       	mul	r30, r19
    116a:	70 0d       	add	r23, r0
    116c:	f2 9f       	mul	r31, r18
    116e:	70 0d       	add	r23, r0
    1170:	11 24       	eor	r1, r1
    1172:	07 2e       	mov	r0, r23
    1174:	00 0c       	add	r0, r0
    1176:	88 0b       	sbc	r24, r24
    1178:	99 0b       	sbc	r25, r25
    117a:	0e 94 f9 12 	call	0x25f2	; 0x25f2 <__floatsisf>
    117e:	26 e6       	ldi	r18, 0x66	; 102
    1180:	36 e6       	ldi	r19, 0x66	; 102
    1182:	46 e0       	ldi	r20, 0x06	; 6
    1184:	54 e4       	ldi	r21, 0x44	; 68
    1186:	0e 94 34 14 	call	0x2868	; 0x2868 <__mulsf3>
    118a:	0e 94 c2 12 	call	0x2584	; 0x2584 <__fixsfsi>
    118e:	60 93 84 20 	sts	0x2084, r22	; 0x802084 <target_T>
    1192:	70 93 85 20 	sts	0x2085, r23	; 0x802085 <target_T+0x1>
    1196:	35 c0       	rjmp	.+106    	; 0x1202 <__vector_83+0x224>
		    }
		else if (roznica_czujnikow<0)
    1198:	99 23       	and	r25, r25
    119a:	5c f5       	brge	.+86     	; 0x11f2 <__vector_83+0x214>
		    {
			docelowa_T_8=10;//roznica_czujnikow/parametrp;
    119c:	2a e0       	ldi	r18, 0x0A	; 10
    119e:	30 e0       	ldi	r19, 0x00	; 0
    11a0:	20 93 20 20 	sts	0x2020, r18	; 0x802020 <docelowa_T_8>
    11a4:	30 93 21 20 	sts	0x2021, r19	; 0x802021 <docelowa_T_8+0x1>
			target_T=lookup(roznica_czujnikow)*(aktualna_V_8/30)*537.6;
    11a8:	af d1       	rcall	.+862    	; 0x1508 <lookup>
    11aa:	fc 01       	movw	r30, r24
    11ac:	80 91 86 20 	lds	r24, 0x2086	; 0x802086 <aktualna_V_8>
    11b0:	90 91 87 20 	lds	r25, 0x2087	; 0x802087 <aktualna_V_8+0x1>
    11b4:	6e e1       	ldi	r22, 0x1E	; 30
    11b6:	70 e0       	ldi	r23, 0x00	; 0
    11b8:	0e 94 e1 14 	call	0x29c2	; 0x29c2 <__divmodhi4>
    11bc:	9b 01       	movw	r18, r22
    11be:	e2 9f       	mul	r30, r18
    11c0:	b0 01       	movw	r22, r0
    11c2:	e3 9f       	mul	r30, r19
    11c4:	70 0d       	add	r23, r0
    11c6:	f2 9f       	mul	r31, r18
    11c8:	70 0d       	add	r23, r0
    11ca:	11 24       	eor	r1, r1
    11cc:	07 2e       	mov	r0, r23
    11ce:	00 0c       	add	r0, r0
    11d0:	88 0b       	sbc	r24, r24
    11d2:	99 0b       	sbc	r25, r25
    11d4:	0e 94 f9 12 	call	0x25f2	; 0x25f2 <__floatsisf>
    11d8:	26 e6       	ldi	r18, 0x66	; 102
    11da:	36 e6       	ldi	r19, 0x66	; 102
    11dc:	46 e0       	ldi	r20, 0x06	; 6
    11de:	54 e4       	ldi	r21, 0x44	; 68
    11e0:	0e 94 34 14 	call	0x2868	; 0x2868 <__mulsf3>
    11e4:	0e 94 c2 12 	call	0x2584	; 0x2584 <__fixsfsi>
    11e8:	60 93 84 20 	sts	0x2084, r22	; 0x802084 <target_T>
    11ec:	70 93 85 20 	sts	0x2085, r23	; 0x802085 <target_T+0x1>
    11f0:	08 c0       	rjmp	.+16     	; 0x1202 <__vector_83+0x224>
		    }
			else
			 {
				 docelowa_T_8=0;
    11f2:	10 92 20 20 	sts	0x2020, r1	; 0x802020 <docelowa_T_8>
    11f6:	10 92 21 20 	sts	0x2021, r1	; 0x802021 <docelowa_T_8+0x1>
				 target_T=0;
    11fa:	10 92 84 20 	sts	0x2084, r1	; 0x802084 <target_T>
    11fe:	10 92 85 20 	sts	0x2085, r1	; 0x802085 <target_T+0x1>
			 }
	}
	
}
    1202:	ff 91       	pop	r31
    1204:	ef 91       	pop	r30
    1206:	bf 91       	pop	r27
    1208:	af 91       	pop	r26
    120a:	9f 91       	pop	r25
    120c:	8f 91       	pop	r24
    120e:	7f 91       	pop	r23
    1210:	6f 91       	pop	r22
    1212:	5f 91       	pop	r21
    1214:	4f 91       	pop	r20
    1216:	3f 91       	pop	r19
    1218:	2f 91       	pop	r18
    121a:	0f 90       	pop	r0
    121c:	0b be       	out	0x3b, r0	; 59
    121e:	0f 90       	pop	r0
    1220:	0f be       	out	0x3f, r0	; 63
    1222:	0f 90       	pop	r0
    1224:	1f 90       	pop	r1
    1226:	18 95       	reti

00001228 <__vector_20>:
		
	int enkl_send=0;
	int enkr_send=0;
ISR(TCC1_OVF_vect){
    1228:	1f 92       	push	r1
    122a:	0f 92       	push	r0
    122c:	0f b6       	in	r0, 0x3f	; 63
    122e:	0f 92       	push	r0
    1230:	11 24       	eor	r1, r1
    1232:	0b b6       	in	r0, 0x3b	; 59
    1234:	0f 92       	push	r0
    1236:	2f 92       	push	r2
    1238:	3f 92       	push	r3
    123a:	4f 92       	push	r4
    123c:	5f 92       	push	r5
    123e:	6f 92       	push	r6
    1240:	7f 92       	push	r7
    1242:	8f 92       	push	r8
    1244:	9f 92       	push	r9
    1246:	af 92       	push	r10
    1248:	bf 92       	push	r11
    124a:	cf 92       	push	r12
    124c:	df 92       	push	r13
    124e:	ef 92       	push	r14
    1250:	ff 92       	push	r15
    1252:	0f 93       	push	r16
    1254:	1f 93       	push	r17
    1256:	2f 93       	push	r18
    1258:	3f 93       	push	r19
    125a:	4f 93       	push	r20
    125c:	5f 93       	push	r21
    125e:	6f 93       	push	r22
    1260:	7f 93       	push	r23
    1262:	8f 93       	push	r24
    1264:	9f 93       	push	r25
    1266:	af 93       	push	r26
    1268:	bf 93       	push	r27
    126a:	ef 93       	push	r30
    126c:	ff 93       	push	r31
    126e:	cf 93       	push	r28
    1270:	df 93       	push	r29
    1272:	cd b7       	in	r28, 0x3d	; 61
    1274:	de b7       	in	r29, 0x3e	; 62
    1276:	62 97       	sbiw	r28, 0x12	; 18
    1278:	cd bf       	out	0x3d, r28	; 61
    127a:	de bf       	out	0x3e, r29	; 62
	//odczyt enkoderow
	enkl = L_ENKODER;
    127c:	20 e0       	ldi	r18, 0x00	; 0
    127e:	38 e0       	ldi	r19, 0x08	; 8
    1280:	f9 01       	movw	r30, r18
    1282:	40 a1       	ldd	r20, Z+32	; 0x20
    1284:	51 a1       	ldd	r21, Z+33	; 0x21
    1286:	60 e0       	ldi	r22, 0x00	; 0
    1288:	70 e0       	ldi	r23, 0x00	; 0
	enkr = R_ENKODER;
    128a:	00 e0       	ldi	r16, 0x00	; 0
    128c:	1b e0       	ldi	r17, 0x0B	; 11
    128e:	f8 01       	movw	r30, r16
    1290:	80 a1       	ldd	r24, Z+32	; 0x20
    1292:	91 a1       	ldd	r25, Z+33	; 0x21
    1294:	a0 e0       	ldi	r26, 0x00	; 0
    1296:	b0 e0       	ldi	r27, 0x00	; 0
    1298:	80 93 cb 26 	sts	0x26CB, r24	; 0x8026cb <enkr>
    129c:	90 93 cc 26 	sts	0x26CC, r25	; 0x8026cc <enkr+0x1>
    12a0:	a0 93 cd 26 	sts	0x26CD, r26	; 0x8026cd <enkr+0x2>
    12a4:	b0 93 ce 26 	sts	0x26CE, r27	; 0x8026ce <enkr+0x3>
	L_ENKODER=0;
    12a8:	f9 01       	movw	r30, r18
    12aa:	10 a2       	std	Z+32, r1	; 0x20
    12ac:	11 a2       	std	Z+33, r1	; 0x21
	R_ENKODER=0;
    12ae:	f8 01       	movw	r30, r16
    12b0:	10 a2       	std	Z+32, r1	; 0x20
    12b2:	11 a2       	std	Z+33, r1	; 0x21
	enkl = - enkl;
    12b4:	00 27       	eor	r16, r16
    12b6:	11 27       	eor	r17, r17
    12b8:	98 01       	movw	r18, r16
    12ba:	04 1b       	sub	r16, r20
    12bc:	15 0b       	sbc	r17, r21
    12be:	26 0b       	sbc	r18, r22
    12c0:	37 0b       	sbc	r19, r23
	if(enkl > 30000)
    12c2:	01 33       	cpi	r16, 0x31	; 49
    12c4:	f5 e7       	ldi	r31, 0x75	; 117
    12c6:	1f 07       	cpc	r17, r31
    12c8:	21 05       	cpc	r18, r1
    12ca:	31 05       	cpc	r19, r1
    12cc:	4c f4       	brge	.+18     	; 0x12e0 <__vector_20+0xb8>
	//odczyt enkoderow
	enkl = L_ENKODER;
	enkr = R_ENKODER;
	L_ENKODER=0;
	R_ENKODER=0;
	enkl = - enkl;
    12ce:	00 93 cf 26 	sts	0x26CF, r16	; 0x8026cf <enkl>
    12d2:	10 93 d0 26 	sts	0x26D0, r17	; 0x8026d0 <enkl+0x1>
    12d6:	20 93 d1 26 	sts	0x26D1, r18	; 0x8026d1 <enkl+0x2>
    12da:	30 93 d2 26 	sts	0x26D2, r19	; 0x8026d2 <enkl+0x3>
    12de:	12 c0       	rjmp	.+36     	; 0x1304 <__vector_20+0xdc>
	if(enkl > 30000)
		enkl = enkl -65536;
    12e0:	00 e0       	ldi	r16, 0x00	; 0
    12e2:	10 e0       	ldi	r17, 0x00	; 0
    12e4:	2f ef       	ldi	r18, 0xFF	; 255
    12e6:	3f ef       	ldi	r19, 0xFF	; 255
    12e8:	68 01       	movw	r12, r16
    12ea:	79 01       	movw	r14, r18
    12ec:	c4 1a       	sub	r12, r20
    12ee:	d5 0a       	sbc	r13, r21
    12f0:	e6 0a       	sbc	r14, r22
    12f2:	f7 0a       	sbc	r15, r23
    12f4:	c0 92 cf 26 	sts	0x26CF, r12	; 0x8026cf <enkl>
    12f8:	d0 92 d0 26 	sts	0x26D0, r13	; 0x8026d0 <enkl+0x1>
    12fc:	e0 92 d1 26 	sts	0x26D1, r14	; 0x8026d1 <enkl+0x2>
    1300:	f0 92 d2 26 	sts	0x26D2, r15	; 0x8026d2 <enkl+0x3>
	if(enkr > 30000)
    1304:	81 33       	cpi	r24, 0x31	; 49
    1306:	25 e7       	ldi	r18, 0x75	; 117
    1308:	92 07       	cpc	r25, r18
    130a:	a1 05       	cpc	r26, r1
    130c:	b1 05       	cpc	r27, r1
    130e:	4c f0       	brlt	.+18     	; 0x1322 <__vector_20+0xfa>
		enkr =enkr- 65536;
    1310:	11 97       	sbiw	r26, 0x01	; 1
    1312:	80 93 cb 26 	sts	0x26CB, r24	; 0x8026cb <enkr>
    1316:	90 93 cc 26 	sts	0x26CC, r25	; 0x8026cc <enkr+0x1>
    131a:	a0 93 cd 26 	sts	0x26CD, r26	; 0x8026cd <enkr+0x2>
    131e:	b0 93 ce 26 	sts	0x26CE, r27	; 0x8026ce <enkr+0x3>
	//predkosc i roznica
	roznica=enkl-enkr;
    1322:	50 90 cf 26 	lds	r5, 0x26CF	; 0x8026cf <enkl>
    1326:	40 90 d0 26 	lds	r4, 0x26D0	; 0x8026d0 <enkl+0x1>
    132a:	30 90 d1 26 	lds	r3, 0x26D1	; 0x8026d1 <enkl+0x2>
    132e:	20 90 d2 26 	lds	r2, 0x26D2	; 0x8026d2 <enkl+0x3>
    1332:	a5 2d       	mov	r26, r5
    1334:	b4 2d       	mov	r27, r4
    1336:	e0 91 cb 26 	lds	r30, 0x26CB	; 0x8026cb <enkr>
    133a:	f0 91 cc 26 	lds	r31, 0x26CC	; 0x8026cc <enkr+0x1>
    133e:	80 91 cd 26 	lds	r24, 0x26CD	; 0x8026cd <enkr+0x2>
    1342:	89 8b       	std	Y+17, r24	; 0x11
    1344:	90 91 ce 26 	lds	r25, 0x26CE	; 0x8026ce <enkr+0x3>
    1348:	9a 8b       	std	Y+18, r25	; 0x12
    134a:	ce 2e       	mov	r12, r30
    134c:	df 2e       	mov	r13, r31
    134e:	3d 01       	movw	r6, r26
    1350:	6c 18       	sub	r6, r12
    1352:	7d 08       	sbc	r7, r13
    1354:	60 92 6e 20 	sts	0x206E, r6	; 0x80206e <roznica>
    1358:	70 92 6f 20 	sts	0x206F, r7	; 0x80206f <roznica+0x1>
	pred=enkl+enkr;
    135c:	ca 0e       	add	r12, r26
    135e:	db 1e       	adc	r13, r27
    1360:	c0 92 6c 20 	sts	0x206C, r12	; 0x80206c <pred>
    1364:	d0 92 6d 20 	sts	0x206D, r13	; 0x80206d <pred+0x1>
	
	go(regV_P,regV_I,regV_D,pred, regT_P, regT_I, regT_D, roznica,enkl,enkr);
    1368:	80 90 08 20 	lds	r8, 0x2008	; 0x802008 <regT_P>
    136c:	90 90 09 20 	lds	r9, 0x2009	; 0x802009 <regT_P+0x1>
    1370:	a0 90 0a 20 	lds	r10, 0x200A	; 0x80200a <regT_P+0x2>
    1374:	b0 90 0b 20 	lds	r11, 0x200B	; 0x80200b <regT_P+0x3>
    1378:	e0 90 0c 20 	lds	r14, 0x200C	; 0x80200c <regV_D>
    137c:	f0 90 0d 20 	lds	r15, 0x200D	; 0x80200d <regV_D+0x1>
    1380:	00 91 0e 20 	lds	r16, 0x200E	; 0x80200e <regV_D+0x2>
    1384:	10 91 0f 20 	lds	r17, 0x200F	; 0x80200f <regV_D+0x3>
    1388:	20 91 10 20 	lds	r18, 0x2010	; 0x802010 <regV_I>
    138c:	30 91 11 20 	lds	r19, 0x2011	; 0x802011 <regV_I+0x1>
    1390:	40 91 12 20 	lds	r20, 0x2012	; 0x802012 <regV_I+0x2>
    1394:	50 91 13 20 	lds	r21, 0x2013	; 0x802013 <regV_I+0x3>
    1398:	60 91 14 20 	lds	r22, 0x2014	; 0x802014 <regV_P>
    139c:	70 91 15 20 	lds	r23, 0x2015	; 0x802015 <regV_P+0x1>
    13a0:	80 91 16 20 	lds	r24, 0x2016	; 0x802016 <regV_P+0x2>
    13a4:	90 91 17 20 	lds	r25, 0x2017	; 0x802017 <regV_P+0x3>
    13a8:	aa 89       	ldd	r26, Y+18	; 0x12
    13aa:	af 93       	push	r26
    13ac:	a9 89       	ldd	r26, Y+17	; 0x11
    13ae:	af 93       	push	r26
    13b0:	ff 93       	push	r31
    13b2:	ef 93       	push	r30
    13b4:	2f 92       	push	r2
    13b6:	3f 92       	push	r3
    13b8:	4f 92       	push	r4
    13ba:	5f 92       	push	r5
    13bc:	7f 92       	push	r7
    13be:	6f 92       	push	r6
    13c0:	e0 91 03 20 	lds	r30, 0x2003	; 0x802003 <__data_start+0x3>
    13c4:	ef 93       	push	r30
    13c6:	e0 91 02 20 	lds	r30, 0x2002	; 0x802002 <__data_start+0x2>
    13ca:	ef 93       	push	r30
    13cc:	e0 91 01 20 	lds	r30, 0x2001	; 0x802001 <__data_start+0x1>
    13d0:	ef 93       	push	r30
    13d2:	e0 91 00 20 	lds	r30, 0x2000	; 0x802000 <__data_start>
    13d6:	ef 93       	push	r30
    13d8:	e0 91 07 20 	lds	r30, 0x2007	; 0x802007 <regT_I+0x3>
    13dc:	ef 93       	push	r30
    13de:	e0 91 06 20 	lds	r30, 0x2006	; 0x802006 <regT_I+0x2>
    13e2:	ef 93       	push	r30
    13e4:	e0 91 05 20 	lds	r30, 0x2005	; 0x802005 <regT_I+0x1>
    13e8:	ef 93       	push	r30
    13ea:	e0 91 04 20 	lds	r30, 0x2004	; 0x802004 <regT_I>
    13ee:	ef 93       	push	r30
    13f0:	e8 d4       	rcall	.+2512   	; 0x1dc2 <go>
	
	
	////pozycja
	par=get_params_enc(enkl,enkr,par);
    13f2:	40 91 cb 26 	lds	r20, 0x26CB	; 0x8026cb <enkr>
    13f6:	50 91 cc 26 	lds	r21, 0x26CC	; 0x8026cc <enkr+0x1>
    13fa:	60 91 cf 26 	lds	r22, 0x26CF	; 0x8026cf <enkl>
    13fe:	70 91 d0 26 	lds	r23, 0x26D0	; 0x8026d0 <enkl+0x1>
    1402:	ed b7       	in	r30, 0x3d	; 61
    1404:	fe b7       	in	r31, 0x3e	; 62
    1406:	70 97       	sbiw	r30, 0x10	; 16
    1408:	ed bf       	out	0x3d, r30	; 61
    140a:	fe bf       	out	0x3e, r31	; 62
    140c:	ad b7       	in	r26, 0x3d	; 61
    140e:	be b7       	in	r27, 0x3e	; 62
    1410:	11 96       	adiw	r26, 0x01	; 1
    1412:	80 e1       	ldi	r24, 0x10	; 16
    1414:	e5 ea       	ldi	r30, 0xA5	; 165
    1416:	f6 e2       	ldi	r31, 0x26	; 38
    1418:	01 90       	ld	r0, Z+
    141a:	0d 92       	st	X+, r0
    141c:	8a 95       	dec	r24
    141e:	e1 f7       	brne	.-8      	; 0x1418 <__vector_20+0x1f0>
    1420:	ce 01       	movw	r24, r28
    1422:	01 96       	adiw	r24, 0x01	; 1
    1424:	69 d6       	rcall	.+3282   	; 0x20f8 <get_params_enc>
    1426:	80 e1       	ldi	r24, 0x10	; 16
    1428:	fe 01       	movw	r30, r28
    142a:	31 96       	adiw	r30, 0x01	; 1
    142c:	a5 ea       	ldi	r26, 0xA5	; 165
    142e:	b6 e2       	ldi	r27, 0x26	; 38
    1430:	01 90       	ld	r0, Z+
    1432:	0d 92       	st	X+, r0
    1434:	8a 95       	dec	r24
    1436:	e1 f7       	brne	.-8      	; 0x1430 <__vector_20+0x208>
    1438:	cd bf       	out	0x3d, r28	; 61
    143a:	de bf       	out	0x3e, r29	; 62
}
    143c:	62 96       	adiw	r28, 0x12	; 18
    143e:	cd bf       	out	0x3d, r28	; 61
    1440:	de bf       	out	0x3e, r29	; 62
    1442:	df 91       	pop	r29
    1444:	cf 91       	pop	r28
    1446:	ff 91       	pop	r31
    1448:	ef 91       	pop	r30
    144a:	bf 91       	pop	r27
    144c:	af 91       	pop	r26
    144e:	9f 91       	pop	r25
    1450:	8f 91       	pop	r24
    1452:	7f 91       	pop	r23
    1454:	6f 91       	pop	r22
    1456:	5f 91       	pop	r21
    1458:	4f 91       	pop	r20
    145a:	3f 91       	pop	r19
    145c:	2f 91       	pop	r18
    145e:	1f 91       	pop	r17
    1460:	0f 91       	pop	r16
    1462:	ff 90       	pop	r15
    1464:	ef 90       	pop	r14
    1466:	df 90       	pop	r13
    1468:	cf 90       	pop	r12
    146a:	bf 90       	pop	r11
    146c:	af 90       	pop	r10
    146e:	9f 90       	pop	r9
    1470:	8f 90       	pop	r8
    1472:	7f 90       	pop	r7
    1474:	6f 90       	pop	r6
    1476:	5f 90       	pop	r5
    1478:	4f 90       	pop	r4
    147a:	3f 90       	pop	r3
    147c:	2f 90       	pop	r2
    147e:	0f 90       	pop	r0
    1480:	0b be       	out	0x3b, r0	; 59
    1482:	0f 90       	pop	r0
    1484:	0f be       	out	0x3f, r0	; 63
    1486:	0f 90       	pop	r0
    1488:	1f 90       	pop	r1
    148a:	18 95       	reti

0000148c <__vector_1>:

ISR(OSC_OSCF_vect) {									// przerwanie w razie awarii oscylatora
    148c:	1f 92       	push	r1
    148e:	0f 92       	push	r0
    1490:	0f b6       	in	r0, 0x3f	; 63
    1492:	0f 92       	push	r0
    1494:	11 24       	eor	r1, r1
    1496:	0b b6       	in	r0, 0x3b	; 59
    1498:	0f 92       	push	r0
    149a:	2f 93       	push	r18
    149c:	3f 93       	push	r19
    149e:	4f 93       	push	r20
    14a0:	5f 93       	push	r21
    14a2:	6f 93       	push	r22
    14a4:	7f 93       	push	r23
    14a6:	8f 93       	push	r24
    14a8:	9f 93       	push	r25
    14aa:	af 93       	push	r26
    14ac:	bf 93       	push	r27
    14ae:	ef 93       	push	r30
    14b0:	ff 93       	push	r31
	OSC.XOSCFAIL	|=	OSC_XOSCFDIF_bm;				// kasowanie flagi przerwania
    14b2:	e0 e5       	ldi	r30, 0x50	; 80
    14b4:	f0 e0       	ldi	r31, 0x00	; 0
    14b6:	83 81       	ldd	r24, Z+3	; 0x03
    14b8:	82 60       	ori	r24, 0x02	; 2
    14ba:	83 83       	std	Z+3, r24	; 0x03
	LcdClear();
    14bc:	ac d8       	rcall	.-3752   	; 0x616 <LcdClear>
	Lcd("Awaria!");
    14be:	88 e2       	ldi	r24, 0x28	; 40
    14c0:	92 e0       	ldi	r25, 0x02	; 2
    14c2:	98 d8       	rcall	.-3792   	; 0x5f4 <LcdWriteProgmem>
    14c4:	2f ef       	ldi	r18, 0xFF	; 255
    14c6:	87 ea       	ldi	r24, 0xA7	; 167
    14c8:	91 e6       	ldi	r25, 0x61	; 97
    14ca:	21 50       	subi	r18, 0x01	; 1
    14cc:	80 40       	sbci	r24, 0x00	; 0
    14ce:	90 40       	sbci	r25, 0x00	; 0
    14d0:	e1 f7       	brne	.-8      	; 0x14ca <__vector_1+0x3e>
    14d2:	00 c0       	rjmp	.+0      	; 0x14d4 <__vector_1+0x48>
    14d4:	00 00       	nop
	_delay_ms(1000);
}
    14d6:	ff 91       	pop	r31
    14d8:	ef 91       	pop	r30
    14da:	bf 91       	pop	r27
    14dc:	af 91       	pop	r26
    14de:	9f 91       	pop	r25
    14e0:	8f 91       	pop	r24
    14e2:	7f 91       	pop	r23
    14e4:	6f 91       	pop	r22
    14e6:	5f 91       	pop	r21
    14e8:	4f 91       	pop	r20
    14ea:	3f 91       	pop	r19
    14ec:	2f 91       	pop	r18
    14ee:	0f 90       	pop	r0
    14f0:	0b be       	out	0x3b, r0	; 59
    14f2:	0f 90       	pop	r0
    14f4:	0f be       	out	0x3f, r0	; 63
    14f6:	0f 90       	pop	r0
    14f8:	1f 90       	pop	r1
    14fa:	18 95       	reti

000014fc <main>:



int main(void) {

	prestartSetUp();
    14fc:	d8 d5       	rcall	.+2992   	; 0x20ae <prestartSetUp>
	rightHandStart();
    14fe:	0e 94 4f 01 	call	0x29e	; 0x29e <rightHandStart>
	
}
    1502:	80 e0       	ldi	r24, 0x00	; 0
    1504:	90 e0       	ldi	r25, 0x00	; 0
    1506:	08 95       	ret

00001508 <lookup>:
		pomfl=adcPomiar_LF()+adcPomiar_LF()+adcPomiar_LF();
		rotateAngle((pomfr-pomfl)/7000);
	_delay_ms(20);
	}

}
    1508:	cf 93       	push	r28
    150a:	df 93       	push	r29
    150c:	cd b7       	in	r28, 0x3d	; 61
    150e:	de b7       	in	r29, 0x3e	; 62
    1510:	c4 54       	subi	r28, 0x44	; 68
    1512:	d1 09       	sbc	r29, r1
    1514:	cd bf       	out	0x3d, r28	; 61
    1516:	de bf       	out	0x3e, r29	; 62
    1518:	24 e4       	ldi	r18, 0x44	; 68
    151a:	e4 e2       	ldi	r30, 0x24	; 36
    151c:	f0 e2       	ldi	r31, 0x20	; 32
    151e:	de 01       	movw	r26, r28
    1520:	11 96       	adiw	r26, 0x01	; 1
    1522:	01 90       	ld	r0, Z+
    1524:	0d 92       	st	X+, r0
    1526:	2a 95       	dec	r18
    1528:	e1 f7       	brne	.-8      	; 0x1522 <lookup+0x1a>
    152a:	2b a1       	ldd	r18, Y+35	; 0x23
    152c:	3c a1       	ldd	r19, Y+36	; 0x24
    152e:	82 17       	cp	r24, r18
    1530:	93 07       	cpc	r25, r19
    1532:	54 f0       	brlt	.+20     	; 0x1548 <lookup+0x40>
    1534:	fe 01       	movw	r30, r28
    1536:	b5 96       	adiw	r30, 0x25	; 37
    1538:	21 e0       	ldi	r18, 0x01	; 1
    153a:	30 e0       	ldi	r19, 0x00	; 0
    153c:	41 91       	ld	r20, Z+
    153e:	51 91       	ld	r21, Z+
    1540:	84 17       	cp	r24, r20
    1542:	95 07       	cpc	r25, r21
    1544:	5c f4       	brge	.+22     	; 0x155c <lookup+0x54>
    1546:	02 c0       	rjmp	.+4      	; 0x154c <lookup+0x44>
    1548:	20 e0       	ldi	r18, 0x00	; 0
    154a:	30 e0       	ldi	r19, 0x00	; 0
    154c:	22 0f       	add	r18, r18
    154e:	33 1f       	adc	r19, r19
    1550:	fe 01       	movw	r30, r28
    1552:	e2 0f       	add	r30, r18
    1554:	f3 1f       	adc	r31, r19
    1556:	81 81       	ldd	r24, Z+1	; 0x01
    1558:	92 81       	ldd	r25, Z+2	; 0x02
    155a:	07 c0       	rjmp	.+14     	; 0x156a <lookup+0x62>
    155c:	2f 5f       	subi	r18, 0xFF	; 255
    155e:	3f 4f       	sbci	r19, 0xFF	; 255
    1560:	20 31       	cpi	r18, 0x10	; 16
    1562:	31 05       	cpc	r19, r1
    1564:	59 f7       	brne	.-42     	; 0x153c <lookup+0x34>
    1566:	80 e0       	ldi	r24, 0x00	; 0
    1568:	90 e0       	ldi	r25, 0x00	; 0
    156a:	cc 5b       	subi	r28, 0xBC	; 188
    156c:	df 4f       	sbci	r29, 0xFF	; 255
    156e:	cd bf       	out	0x3d, r28	; 61
    1570:	de bf       	out	0x3e, r29	; 62
    1572:	df 91       	pop	r29
    1574:	cf 91       	pop	r28
    1576:	08 95       	ret

00001578 <profiler>:
    1578:	4f 92       	push	r4
    157a:	5f 92       	push	r5
    157c:	6f 92       	push	r6
    157e:	7f 92       	push	r7
    1580:	8f 92       	push	r8
    1582:	9f 92       	push	r9
    1584:	af 92       	push	r10
    1586:	bf 92       	push	r11
    1588:	cf 92       	push	r12
    158a:	df 92       	push	r13
    158c:	ef 92       	push	r14
    158e:	ff 92       	push	r15
    1590:	cf 93       	push	r28
    1592:	df 93       	push	r29
    1594:	00 d0       	rcall	.+0      	; 0x1596 <profiler+0x1e>
    1596:	1f 92       	push	r1
    1598:	cd b7       	in	r28, 0x3d	; 61
    159a:	de b7       	in	r29, 0x3e	; 62
    159c:	6b 01       	movw	r12, r22
    159e:	7c 01       	movw	r14, r24
    15a0:	49 01       	movw	r8, r18
    15a2:	5a 01       	movw	r10, r20
    15a4:	80 91 22 20 	lds	r24, 0x2022	; 0x802022 <docelowa_V_8>
    15a8:	90 91 23 20 	lds	r25, 0x2023	; 0x802023 <docelowa_V_8+0x1>
    15ac:	99 23       	and	r25, r25
    15ae:	0c f4       	brge	.+2      	; 0x15b2 <profiler+0x3a>
    15b0:	ac c0       	rjmp	.+344    	; 0x170a <profiler+0x192>
    15b2:	80 91 80 20 	lds	r24, 0x2080	; 0x802080 <stan>
    15b6:	90 91 81 20 	lds	r25, 0x2081	; 0x802081 <stan+0x1>
    15ba:	89 2b       	or	r24, r25
    15bc:	09 f0       	breq	.+2      	; 0x15c0 <profiler+0x48>
    15be:	53 c0       	rjmp	.+166    	; 0x1666 <profiler+0xee>
    15c0:	20 91 86 20 	lds	r18, 0x2086	; 0x802086 <aktualna_V_8>
    15c4:	30 91 87 20 	lds	r19, 0x2087	; 0x802087 <aktualna_V_8+0x1>
    15c8:	80 91 1e 20 	lds	r24, 0x201E	; 0x80201e <next_V_8>
    15cc:	90 91 1f 20 	lds	r25, 0x201F	; 0x80201f <next_V_8+0x1>
    15d0:	a9 01       	movw	r20, r18
    15d2:	48 1b       	sub	r20, r24
    15d4:	59 0b       	sbc	r21, r25
    15d6:	28 0f       	add	r18, r24
    15d8:	39 1f       	adc	r19, r25
    15da:	42 9f       	mul	r20, r18
    15dc:	c0 01       	movw	r24, r0
    15de:	43 9f       	mul	r20, r19
    15e0:	90 0d       	add	r25, r0
    15e2:	52 9f       	mul	r21, r18
    15e4:	90 0d       	add	r25, r0
    15e6:	11 24       	eor	r1, r1
    15e8:	60 91 1c 20 	lds	r22, 0x201C	; 0x80201c <przysp_8>
    15ec:	70 91 1d 20 	lds	r23, 0x201D	; 0x80201d <przysp_8+0x1>
    15f0:	66 0f       	add	r22, r22
    15f2:	77 1f       	adc	r23, r23
    15f4:	66 0f       	add	r22, r22
    15f6:	77 1f       	adc	r23, r23
    15f8:	0e 94 e1 14 	call	0x29c2	; 0x29c2 <__divmodhi4>
    15fc:	07 2e       	mov	r0, r23
    15fe:	00 0c       	add	r0, r0
    1600:	88 0b       	sbc	r24, r24
    1602:	99 0b       	sbc	r25, r25
    1604:	f6 d7       	rcall	.+4076   	; 0x25f2 <__floatsisf>
    1606:	69 83       	std	Y+1, r22	; 0x01
    1608:	7a 83       	std	Y+2, r23	; 0x02
    160a:	8b 83       	std	Y+3, r24	; 0x03
    160c:	9c 83       	std	Y+4, r25	; 0x04
    160e:	60 91 8e 20 	lds	r22, 0x208E	; 0x80208e <target_S>
    1612:	70 91 8f 20 	lds	r23, 0x208F	; 0x80208f <target_S+0x1>
    1616:	07 2e       	mov	r0, r23
    1618:	00 0c       	add	r0, r0
    161a:	88 0b       	sbc	r24, r24
    161c:	99 0b       	sbc	r25, r25
    161e:	e9 d7       	rcall	.+4050   	; 0x25f2 <__floatsisf>
    1620:	2b 01       	movw	r4, r22
    1622:	3c 01       	movw	r6, r24
    1624:	20 e0       	ldi	r18, 0x00	; 0
    1626:	30 e0       	ldi	r19, 0x00	; 0
    1628:	a9 01       	movw	r20, r18
    162a:	0e 94 30 14 	call	0x2860	; 0x2860 <__gesf2>
    162e:	88 23       	and	r24, r24
    1630:	24 f4       	brge	.+8      	; 0x163a <profiler+0xc2>
    1632:	77 fa       	bst	r7, 7
    1634:	70 94       	com	r7
    1636:	77 f8       	bld	r7, 7
    1638:	70 94       	com	r7
    163a:	a3 01       	movw	r20, r6
    163c:	92 01       	movw	r18, r4
    163e:	69 81       	ldd	r22, Y+1	; 0x01
    1640:	7a 81       	ldd	r23, Y+2	; 0x02
    1642:	8b 81       	ldd	r24, Y+3	; 0x03
    1644:	9c 81       	ldd	r25, Y+4	; 0x04
    1646:	0e 94 30 14 	call	0x2860	; 0x2860 <__gesf2>
    164a:	88 23       	and	r24, r24
    164c:	64 f0       	brlt	.+24     	; 0x1666 <profiler+0xee>
    164e:	82 e0       	ldi	r24, 0x02	; 2
    1650:	90 e0       	ldi	r25, 0x00	; 0
    1652:	80 93 80 20 	sts	0x2080, r24	; 0x802080 <stan>
    1656:	90 93 81 20 	sts	0x2081, r25	; 0x802081 <stan+0x1>
    165a:	85 e0       	ldi	r24, 0x05	; 5
    165c:	90 e0       	ldi	r25, 0x00	; 0
    165e:	80 93 22 20 	sts	0x2022, r24	; 0x802022 <docelowa_V_8>
    1662:	90 93 23 20 	sts	0x2023, r25	; 0x802023 <docelowa_V_8+0x1>
    1666:	80 91 86 20 	lds	r24, 0x2086	; 0x802086 <aktualna_V_8>
    166a:	90 91 87 20 	lds	r25, 0x2087	; 0x802087 <aktualna_V_8+0x1>
    166e:	20 91 22 20 	lds	r18, 0x2022	; 0x802022 <docelowa_V_8>
    1672:	30 91 23 20 	lds	r19, 0x2023	; 0x802023 <docelowa_V_8+0x1>
    1676:	82 17       	cp	r24, r18
    1678:	93 07       	cpc	r25, r19
    167a:	04 f5       	brge	.+64     	; 0x16bc <profiler+0x144>
    167c:	85 30       	cpi	r24, 0x05	; 5
    167e:	91 05       	cpc	r25, r1
    1680:	3c f4       	brge	.+14     	; 0x1690 <profiler+0x118>
    1682:	85 e0       	ldi	r24, 0x05	; 5
    1684:	90 e0       	ldi	r25, 0x00	; 0
    1686:	80 93 86 20 	sts	0x2086, r24	; 0x802086 <aktualna_V_8>
    168a:	90 93 87 20 	sts	0x2087, r25	; 0x802087 <aktualna_V_8+0x1>
    168e:	0a c0       	rjmp	.+20     	; 0x16a4 <profiler+0x12c>
    1690:	40 91 1c 20 	lds	r20, 0x201C	; 0x80201c <przysp_8>
    1694:	50 91 1d 20 	lds	r21, 0x201D	; 0x80201d <przysp_8+0x1>
    1698:	84 0f       	add	r24, r20
    169a:	95 1f       	adc	r25, r21
    169c:	80 93 86 20 	sts	0x2086, r24	; 0x802086 <aktualna_V_8>
    16a0:	90 93 87 20 	sts	0x2087, r25	; 0x802087 <aktualna_V_8+0x1>
    16a4:	80 91 86 20 	lds	r24, 0x2086	; 0x802086 <aktualna_V_8>
    16a8:	90 91 87 20 	lds	r25, 0x2087	; 0x802087 <aktualna_V_8+0x1>
    16ac:	28 17       	cp	r18, r24
    16ae:	39 07       	cpc	r19, r25
    16b0:	d4 f4       	brge	.+52     	; 0x16e6 <profiler+0x16e>
    16b2:	20 93 86 20 	sts	0x2086, r18	; 0x802086 <aktualna_V_8>
    16b6:	30 93 87 20 	sts	0x2087, r19	; 0x802087 <aktualna_V_8+0x1>
    16ba:	15 c0       	rjmp	.+42     	; 0x16e6 <profiler+0x16e>
    16bc:	28 17       	cp	r18, r24
    16be:	39 07       	cpc	r19, r25
    16c0:	94 f4       	brge	.+36     	; 0x16e6 <profiler+0x16e>
    16c2:	40 91 1c 20 	lds	r20, 0x201C	; 0x80201c <przysp_8>
    16c6:	50 91 1d 20 	lds	r21, 0x201D	; 0x80201d <przysp_8+0x1>
    16ca:	84 1b       	sub	r24, r20
    16cc:	95 0b       	sbc	r25, r21
    16ce:	82 17       	cp	r24, r18
    16d0:	93 07       	cpc	r25, r19
    16d2:	2c f0       	brlt	.+10     	; 0x16de <profiler+0x166>
    16d4:	80 93 86 20 	sts	0x2086, r24	; 0x802086 <aktualna_V_8>
    16d8:	90 93 87 20 	sts	0x2087, r25	; 0x802087 <aktualna_V_8+0x1>
    16dc:	04 c0       	rjmp	.+8      	; 0x16e6 <profiler+0x16e>
    16de:	20 93 86 20 	sts	0x2086, r18	; 0x802086 <aktualna_V_8>
    16e2:	30 93 87 20 	sts	0x2087, r19	; 0x802087 <aktualna_V_8+0x1>
    16e6:	80 91 8e 20 	lds	r24, 0x208E	; 0x80208e <target_S>
    16ea:	90 91 8f 20 	lds	r25, 0x208F	; 0x80208f <target_S+0x1>
    16ee:	18 16       	cp	r1, r24
    16f0:	19 06       	cpc	r1, r25
    16f2:	0c f4       	brge	.+2      	; 0x16f6 <profiler+0x17e>
    16f4:	b5 c0       	rjmp	.+362    	; 0x1860 <profiler+0x2e8>
    16f6:	10 92 86 20 	sts	0x2086, r1	; 0x802086 <aktualna_V_8>
    16fa:	10 92 87 20 	sts	0x2087, r1	; 0x802087 <aktualna_V_8+0x1>
    16fe:	80 91 d8 26 	lds	r24, 0x26D8	; 0x8026d8 <moves_flags>
    1702:	8e 7f       	andi	r24, 0xFE	; 254
    1704:	80 93 d8 26 	sts	0x26D8, r24	; 0x8026d8 <moves_flags>
    1708:	ab c0       	rjmp	.+342    	; 0x1860 <profiler+0x2e8>
    170a:	80 91 80 20 	lds	r24, 0x2080	; 0x802080 <stan>
    170e:	90 91 81 20 	lds	r25, 0x2081	; 0x802081 <stan+0x1>
    1712:	89 2b       	or	r24, r25
    1714:	09 f0       	breq	.+2      	; 0x1718 <profiler+0x1a0>
    1716:	53 c0       	rjmp	.+166    	; 0x17be <profiler+0x246>
    1718:	20 91 86 20 	lds	r18, 0x2086	; 0x802086 <aktualna_V_8>
    171c:	30 91 87 20 	lds	r19, 0x2087	; 0x802087 <aktualna_V_8+0x1>
    1720:	80 91 1e 20 	lds	r24, 0x201E	; 0x80201e <next_V_8>
    1724:	90 91 1f 20 	lds	r25, 0x201F	; 0x80201f <next_V_8+0x1>
    1728:	a9 01       	movw	r20, r18
    172a:	48 1b       	sub	r20, r24
    172c:	59 0b       	sbc	r21, r25
    172e:	28 0f       	add	r18, r24
    1730:	39 1f       	adc	r19, r25
    1732:	42 9f       	mul	r20, r18
    1734:	c0 01       	movw	r24, r0
    1736:	43 9f       	mul	r20, r19
    1738:	90 0d       	add	r25, r0
    173a:	52 9f       	mul	r21, r18
    173c:	90 0d       	add	r25, r0
    173e:	11 24       	eor	r1, r1
    1740:	60 91 1c 20 	lds	r22, 0x201C	; 0x80201c <przysp_8>
    1744:	70 91 1d 20 	lds	r23, 0x201D	; 0x80201d <przysp_8+0x1>
    1748:	66 0f       	add	r22, r22
    174a:	77 1f       	adc	r23, r23
    174c:	66 0f       	add	r22, r22
    174e:	77 1f       	adc	r23, r23
    1750:	0e 94 e1 14 	call	0x29c2	; 0x29c2 <__divmodhi4>
    1754:	07 2e       	mov	r0, r23
    1756:	00 0c       	add	r0, r0
    1758:	88 0b       	sbc	r24, r24
    175a:	99 0b       	sbc	r25, r25
    175c:	4a d7       	rcall	.+3732   	; 0x25f2 <__floatsisf>
    175e:	69 83       	std	Y+1, r22	; 0x01
    1760:	7a 83       	std	Y+2, r23	; 0x02
    1762:	8b 83       	std	Y+3, r24	; 0x03
    1764:	9c 83       	std	Y+4, r25	; 0x04
    1766:	60 91 8e 20 	lds	r22, 0x208E	; 0x80208e <target_S>
    176a:	70 91 8f 20 	lds	r23, 0x208F	; 0x80208f <target_S+0x1>
    176e:	07 2e       	mov	r0, r23
    1770:	00 0c       	add	r0, r0
    1772:	88 0b       	sbc	r24, r24
    1774:	99 0b       	sbc	r25, r25
    1776:	3d d7       	rcall	.+3706   	; 0x25f2 <__floatsisf>
    1778:	2b 01       	movw	r4, r22
    177a:	3c 01       	movw	r6, r24
    177c:	20 e0       	ldi	r18, 0x00	; 0
    177e:	30 e0       	ldi	r19, 0x00	; 0
    1780:	a9 01       	movw	r20, r18
    1782:	0e 94 30 14 	call	0x2860	; 0x2860 <__gesf2>
    1786:	88 23       	and	r24, r24
    1788:	24 f4       	brge	.+8      	; 0x1792 <profiler+0x21a>
    178a:	77 fa       	bst	r7, 7
    178c:	70 94       	com	r7
    178e:	77 f8       	bld	r7, 7
    1790:	70 94       	com	r7
    1792:	a3 01       	movw	r20, r6
    1794:	92 01       	movw	r18, r4
    1796:	69 81       	ldd	r22, Y+1	; 0x01
    1798:	7a 81       	ldd	r23, Y+2	; 0x02
    179a:	8b 81       	ldd	r24, Y+3	; 0x03
    179c:	9c 81       	ldd	r25, Y+4	; 0x04
    179e:	0e 94 30 14 	call	0x2860	; 0x2860 <__gesf2>
    17a2:	88 23       	and	r24, r24
    17a4:	64 f0       	brlt	.+24     	; 0x17be <profiler+0x246>
    17a6:	82 e0       	ldi	r24, 0x02	; 2
    17a8:	90 e0       	ldi	r25, 0x00	; 0
    17aa:	80 93 80 20 	sts	0x2080, r24	; 0x802080 <stan>
    17ae:	90 93 81 20 	sts	0x2081, r25	; 0x802081 <stan+0x1>
    17b2:	8b ef       	ldi	r24, 0xFB	; 251
    17b4:	9f ef       	ldi	r25, 0xFF	; 255
    17b6:	80 93 22 20 	sts	0x2022, r24	; 0x802022 <docelowa_V_8>
    17ba:	90 93 23 20 	sts	0x2023, r25	; 0x802023 <docelowa_V_8+0x1>
    17be:	80 91 86 20 	lds	r24, 0x2086	; 0x802086 <aktualna_V_8>
    17c2:	90 91 87 20 	lds	r25, 0x2087	; 0x802087 <aktualna_V_8+0x1>
    17c6:	20 91 22 20 	lds	r18, 0x2022	; 0x802022 <docelowa_V_8>
    17ca:	30 91 23 20 	lds	r19, 0x2023	; 0x802023 <docelowa_V_8+0x1>
    17ce:	28 17       	cp	r18, r24
    17d0:	39 07       	cpc	r19, r25
    17d2:	0c f5       	brge	.+66     	; 0x1816 <profiler+0x29e>
    17d4:	8c 3f       	cpi	r24, 0xFC	; 252
    17d6:	4f ef       	ldi	r20, 0xFF	; 255
    17d8:	94 07       	cpc	r25, r20
    17da:	3c f0       	brlt	.+14     	; 0x17ea <profiler+0x272>
    17dc:	8b ef       	ldi	r24, 0xFB	; 251
    17de:	9f ef       	ldi	r25, 0xFF	; 255
    17e0:	80 93 86 20 	sts	0x2086, r24	; 0x802086 <aktualna_V_8>
    17e4:	90 93 87 20 	sts	0x2087, r25	; 0x802087 <aktualna_V_8+0x1>
    17e8:	0a c0       	rjmp	.+20     	; 0x17fe <profiler+0x286>
    17ea:	40 91 1c 20 	lds	r20, 0x201C	; 0x80201c <przysp_8>
    17ee:	50 91 1d 20 	lds	r21, 0x201D	; 0x80201d <przysp_8+0x1>
    17f2:	84 1b       	sub	r24, r20
    17f4:	95 0b       	sbc	r25, r21
    17f6:	80 93 86 20 	sts	0x2086, r24	; 0x802086 <aktualna_V_8>
    17fa:	90 93 87 20 	sts	0x2087, r25	; 0x802087 <aktualna_V_8+0x1>
    17fe:	80 91 86 20 	lds	r24, 0x2086	; 0x802086 <aktualna_V_8>
    1802:	90 91 87 20 	lds	r25, 0x2087	; 0x802087 <aktualna_V_8+0x1>
    1806:	82 17       	cp	r24, r18
    1808:	93 07       	cpc	r25, r19
    180a:	d4 f4       	brge	.+52     	; 0x1840 <profiler+0x2c8>
    180c:	20 93 86 20 	sts	0x2086, r18	; 0x802086 <aktualna_V_8>
    1810:	30 93 87 20 	sts	0x2087, r19	; 0x802087 <aktualna_V_8+0x1>
    1814:	15 c0       	rjmp	.+42     	; 0x1840 <profiler+0x2c8>
    1816:	82 17       	cp	r24, r18
    1818:	93 07       	cpc	r25, r19
    181a:	94 f4       	brge	.+36     	; 0x1840 <profiler+0x2c8>
    181c:	40 91 1c 20 	lds	r20, 0x201C	; 0x80201c <przysp_8>
    1820:	50 91 1d 20 	lds	r21, 0x201D	; 0x80201d <przysp_8+0x1>
    1824:	84 0f       	add	r24, r20
    1826:	95 1f       	adc	r25, r21
    1828:	28 17       	cp	r18, r24
    182a:	39 07       	cpc	r19, r25
    182c:	2c f0       	brlt	.+10     	; 0x1838 <profiler+0x2c0>
    182e:	80 93 86 20 	sts	0x2086, r24	; 0x802086 <aktualna_V_8>
    1832:	90 93 87 20 	sts	0x2087, r25	; 0x802087 <aktualna_V_8+0x1>
    1836:	04 c0       	rjmp	.+8      	; 0x1840 <profiler+0x2c8>
    1838:	20 93 86 20 	sts	0x2086, r18	; 0x802086 <aktualna_V_8>
    183c:	30 93 87 20 	sts	0x2087, r19	; 0x802087 <aktualna_V_8+0x1>
    1840:	80 91 8e 20 	lds	r24, 0x208E	; 0x80208e <target_S>
    1844:	90 91 8f 20 	lds	r25, 0x208F	; 0x80208f <target_S+0x1>
    1848:	18 16       	cp	r1, r24
    184a:	19 06       	cpc	r1, r25
    184c:	4c f4       	brge	.+18     	; 0x1860 <profiler+0x2e8>
    184e:	10 92 86 20 	sts	0x2086, r1	; 0x802086 <aktualna_V_8>
    1852:	10 92 87 20 	sts	0x2087, r1	; 0x802087 <aktualna_V_8+0x1>
    1856:	80 91 d8 26 	lds	r24, 0x26D8	; 0x8026d8 <moves_flags>
    185a:	8e 7f       	andi	r24, 0xFE	; 254
    185c:	80 93 d8 26 	sts	0x26D8, r24	; 0x8026d8 <moves_flags>
    1860:	80 91 8e 20 	lds	r24, 0x208E	; 0x80208e <target_S>
    1864:	90 91 8f 20 	lds	r25, 0x208F	; 0x80208f <target_S+0x1>
    1868:	88 19       	sub	r24, r8
    186a:	99 09       	sbc	r25, r9
    186c:	8c 19       	sub	r24, r12
    186e:	9d 09       	sbc	r25, r13
    1870:	80 93 8e 20 	sts	0x208E, r24	; 0x80208e <target_S>
    1874:	90 93 8f 20 	sts	0x208F, r25	; 0x80208f <target_S+0x1>
    1878:	24 96       	adiw	r28, 0x04	; 4
    187a:	cd bf       	out	0x3d, r28	; 61
    187c:	de bf       	out	0x3e, r29	; 62
    187e:	df 91       	pop	r29
    1880:	cf 91       	pop	r28
    1882:	ff 90       	pop	r15
    1884:	ef 90       	pop	r14
    1886:	df 90       	pop	r13
    1888:	cf 90       	pop	r12
    188a:	bf 90       	pop	r11
    188c:	af 90       	pop	r10
    188e:	9f 90       	pop	r9
    1890:	8f 90       	pop	r8
    1892:	7f 90       	pop	r7
    1894:	6f 90       	pop	r6
    1896:	5f 90       	pop	r5
    1898:	4f 90       	pop	r4
    189a:	08 95       	ret

0000189c <profiler_k>:
    189c:	4f 92       	push	r4
    189e:	5f 92       	push	r5
    18a0:	6f 92       	push	r6
    18a2:	7f 92       	push	r7
    18a4:	8f 92       	push	r8
    18a6:	9f 92       	push	r9
    18a8:	af 92       	push	r10
    18aa:	bf 92       	push	r11
    18ac:	cf 92       	push	r12
    18ae:	df 92       	push	r13
    18b0:	ef 92       	push	r14
    18b2:	ff 92       	push	r15
    18b4:	cf 93       	push	r28
    18b6:	df 93       	push	r29
    18b8:	00 d0       	rcall	.+0      	; 0x18ba <profiler_k+0x1e>
    18ba:	1f 92       	push	r1
    18bc:	cd b7       	in	r28, 0x3d	; 61
    18be:	de b7       	in	r29, 0x3e	; 62
    18c0:	4b 01       	movw	r8, r22
    18c2:	5c 01       	movw	r10, r24
    18c4:	69 01       	movw	r12, r18
    18c6:	7a 01       	movw	r14, r20
    18c8:	80 91 20 20 	lds	r24, 0x2020	; 0x802020 <docelowa_T_8>
    18cc:	90 91 21 20 	lds	r25, 0x2021	; 0x802021 <docelowa_T_8+0x1>
    18d0:	99 23       	and	r25, r25
    18d2:	0c f4       	brge	.+2      	; 0x18d6 <profiler_k+0x3a>
    18d4:	9c c0       	rjmp	.+312    	; 0x1a0e <profiler_k+0x172>
    18d6:	80 91 82 20 	lds	r24, 0x2082	; 0x802082 <stan_T>
    18da:	90 91 83 20 	lds	r25, 0x2083	; 0x802083 <stan_T+0x1>
    18de:	89 2b       	or	r24, r25
    18e0:	09 f0       	breq	.+2      	; 0x18e4 <profiler_k+0x48>
    18e2:	54 c0       	rjmp	.+168    	; 0x198c <profiler_k+0xf0>
    18e4:	80 91 90 20 	lds	r24, 0x2090	; 0x802090 <aktualna_T_8>
    18e8:	90 91 91 20 	lds	r25, 0x2091	; 0x802091 <aktualna_T_8+0x1>
    18ec:	9c 01       	movw	r18, r24
    18ee:	25 50       	subi	r18, 0x05	; 5
    18f0:	31 09       	sbc	r19, r1
    18f2:	05 96       	adiw	r24, 0x05	; 5
    18f4:	28 9f       	mul	r18, r24
    18f6:	b0 01       	movw	r22, r0
    18f8:	29 9f       	mul	r18, r25
    18fa:	70 0d       	add	r23, r0
    18fc:	38 9f       	mul	r19, r24
    18fe:	70 0d       	add	r23, r0
    1900:	11 24       	eor	r1, r1
    1902:	07 2e       	mov	r0, r23
    1904:	00 0c       	add	r0, r0
    1906:	88 0b       	sbc	r24, r24
    1908:	99 0b       	sbc	r25, r25
    190a:	73 d6       	rcall	.+3302   	; 0x25f2 <__floatsisf>
    190c:	2b 01       	movw	r4, r22
    190e:	3c 01       	movw	r6, r24
    1910:	60 91 18 20 	lds	r22, 0x2018	; 0x802018 <przyspT_8>
    1914:	70 91 19 20 	lds	r23, 0x2019	; 0x802019 <przyspT_8+0x1>
    1918:	80 91 1a 20 	lds	r24, 0x201A	; 0x80201a <przyspT_8+0x2>
    191c:	90 91 1b 20 	lds	r25, 0x201B	; 0x80201b <przyspT_8+0x3>
    1920:	9b 01       	movw	r18, r22
    1922:	ac 01       	movw	r20, r24
    1924:	5c d5       	rcall	.+2744   	; 0x23de <__addsf3>
    1926:	9b 01       	movw	r18, r22
    1928:	ac 01       	movw	r20, r24
    192a:	c3 01       	movw	r24, r6
    192c:	b2 01       	movw	r22, r4
    192e:	c2 d5       	rcall	.+2948   	; 0x24b4 <__divsf3>
    1930:	69 83       	std	Y+1, r22	; 0x01
    1932:	7a 83       	std	Y+2, r23	; 0x02
    1934:	8b 83       	std	Y+3, r24	; 0x03
    1936:	9c 83       	std	Y+4, r25	; 0x04
    1938:	60 91 84 20 	lds	r22, 0x2084	; 0x802084 <target_T>
    193c:	70 91 85 20 	lds	r23, 0x2085	; 0x802085 <target_T+0x1>
    1940:	07 2e       	mov	r0, r23
    1942:	00 0c       	add	r0, r0
    1944:	88 0b       	sbc	r24, r24
    1946:	99 0b       	sbc	r25, r25
    1948:	54 d6       	rcall	.+3240   	; 0x25f2 <__floatsisf>
    194a:	2b 01       	movw	r4, r22
    194c:	3c 01       	movw	r6, r24
    194e:	20 e0       	ldi	r18, 0x00	; 0
    1950:	30 e0       	ldi	r19, 0x00	; 0
    1952:	a9 01       	movw	r20, r18
    1954:	85 d7       	rcall	.+3850   	; 0x2860 <__gesf2>
    1956:	88 23       	and	r24, r24
    1958:	24 f4       	brge	.+8      	; 0x1962 <profiler_k+0xc6>
    195a:	77 fa       	bst	r7, 7
    195c:	70 94       	com	r7
    195e:	77 f8       	bld	r7, 7
    1960:	70 94       	com	r7
    1962:	a3 01       	movw	r20, r6
    1964:	92 01       	movw	r18, r4
    1966:	69 81       	ldd	r22, Y+1	; 0x01
    1968:	7a 81       	ldd	r23, Y+2	; 0x02
    196a:	8b 81       	ldd	r24, Y+3	; 0x03
    196c:	9c 81       	ldd	r25, Y+4	; 0x04
    196e:	78 d7       	rcall	.+3824   	; 0x2860 <__gesf2>
    1970:	88 23       	and	r24, r24
    1972:	64 f0       	brlt	.+24     	; 0x198c <profiler_k+0xf0>
    1974:	82 e0       	ldi	r24, 0x02	; 2
    1976:	90 e0       	ldi	r25, 0x00	; 0
    1978:	80 93 82 20 	sts	0x2082, r24	; 0x802082 <stan_T>
    197c:	90 93 83 20 	sts	0x2083, r25	; 0x802083 <stan_T+0x1>
    1980:	85 e0       	ldi	r24, 0x05	; 5
    1982:	90 e0       	ldi	r25, 0x00	; 0
    1984:	80 93 20 20 	sts	0x2020, r24	; 0x802020 <docelowa_T_8>
    1988:	90 93 21 20 	sts	0x2021, r25	; 0x802021 <docelowa_T_8+0x1>
    198c:	80 91 90 20 	lds	r24, 0x2090	; 0x802090 <aktualna_T_8>
    1990:	90 91 91 20 	lds	r25, 0x2091	; 0x802091 <aktualna_T_8+0x1>
    1994:	20 91 20 20 	lds	r18, 0x2020	; 0x802020 <docelowa_T_8>
    1998:	30 91 21 20 	lds	r19, 0x2021	; 0x802021 <docelowa_T_8+0x1>
    199c:	82 17       	cp	r24, r18
    199e:	93 07       	cpc	r25, r19
    19a0:	7c f4       	brge	.+30     	; 0x19c0 <profiler_k+0x124>
    19a2:	40 91 1c 20 	lds	r20, 0x201C	; 0x80201c <przysp_8>
    19a6:	50 91 1d 20 	lds	r21, 0x201D	; 0x80201d <przysp_8+0x1>
    19aa:	84 0f       	add	r24, r20
    19ac:	95 1f       	adc	r25, r21
    19ae:	28 17       	cp	r18, r24
    19b0:	39 07       	cpc	r19, r25
    19b2:	0c f0       	brlt	.+2      	; 0x19b6 <profiler_k+0x11a>
    19b4:	d1 c0       	rjmp	.+418    	; 0x1b58 <profiler_k+0x2bc>
    19b6:	20 93 90 20 	sts	0x2090, r18	; 0x802090 <aktualna_T_8>
    19ba:	30 93 91 20 	sts	0x2091, r19	; 0x802091 <aktualna_T_8+0x1>
    19be:	15 c0       	rjmp	.+42     	; 0x19ea <profiler_k+0x14e>
    19c0:	28 17       	cp	r18, r24
    19c2:	39 07       	cpc	r19, r25
    19c4:	94 f4       	brge	.+36     	; 0x19ea <profiler_k+0x14e>
    19c6:	40 91 1c 20 	lds	r20, 0x201C	; 0x80201c <przysp_8>
    19ca:	50 91 1d 20 	lds	r21, 0x201D	; 0x80201d <przysp_8+0x1>
    19ce:	84 1b       	sub	r24, r20
    19d0:	95 0b       	sbc	r25, r21
    19d2:	82 17       	cp	r24, r18
    19d4:	93 07       	cpc	r25, r19
    19d6:	2c f0       	brlt	.+10     	; 0x19e2 <profiler_k+0x146>
    19d8:	80 93 90 20 	sts	0x2090, r24	; 0x802090 <aktualna_T_8>
    19dc:	90 93 91 20 	sts	0x2091, r25	; 0x802091 <aktualna_T_8+0x1>
    19e0:	04 c0       	rjmp	.+8      	; 0x19ea <profiler_k+0x14e>
    19e2:	20 93 90 20 	sts	0x2090, r18	; 0x802090 <aktualna_T_8>
    19e6:	30 93 91 20 	sts	0x2091, r19	; 0x802091 <aktualna_T_8+0x1>
    19ea:	80 91 84 20 	lds	r24, 0x2084	; 0x802084 <target_T>
    19ee:	90 91 85 20 	lds	r25, 0x2085	; 0x802085 <target_T+0x1>
    19f2:	18 16       	cp	r1, r24
    19f4:	19 06       	cpc	r1, r25
    19f6:	0c f4       	brge	.+2      	; 0x19fa <profiler_k+0x15e>
    19f8:	a2 c0       	rjmp	.+324    	; 0x1b3e <profiler_k+0x2a2>
    19fa:	10 92 90 20 	sts	0x2090, r1	; 0x802090 <aktualna_T_8>
    19fe:	10 92 91 20 	sts	0x2091, r1	; 0x802091 <aktualna_T_8+0x1>
    1a02:	80 91 d8 26 	lds	r24, 0x26D8	; 0x8026d8 <moves_flags>
    1a06:	8d 7f       	andi	r24, 0xFD	; 253
    1a08:	80 93 d8 26 	sts	0x26D8, r24	; 0x8026d8 <moves_flags>
    1a0c:	98 c0       	rjmp	.+304    	; 0x1b3e <profiler_k+0x2a2>
    1a0e:	80 91 82 20 	lds	r24, 0x2082	; 0x802082 <stan_T>
    1a12:	90 91 83 20 	lds	r25, 0x2083	; 0x802083 <stan_T+0x1>
    1a16:	89 2b       	or	r24, r25
    1a18:	09 f0       	breq	.+2      	; 0x1a1c <profiler_k+0x180>
    1a1a:	54 c0       	rjmp	.+168    	; 0x1ac4 <profiler_k+0x228>
    1a1c:	80 91 90 20 	lds	r24, 0x2090	; 0x802090 <aktualna_T_8>
    1a20:	90 91 91 20 	lds	r25, 0x2091	; 0x802091 <aktualna_T_8+0x1>
    1a24:	9c 01       	movw	r18, r24
    1a26:	25 50       	subi	r18, 0x05	; 5
    1a28:	31 09       	sbc	r19, r1
    1a2a:	05 96       	adiw	r24, 0x05	; 5
    1a2c:	28 9f       	mul	r18, r24
    1a2e:	b0 01       	movw	r22, r0
    1a30:	29 9f       	mul	r18, r25
    1a32:	70 0d       	add	r23, r0
    1a34:	38 9f       	mul	r19, r24
    1a36:	70 0d       	add	r23, r0
    1a38:	11 24       	eor	r1, r1
    1a3a:	07 2e       	mov	r0, r23
    1a3c:	00 0c       	add	r0, r0
    1a3e:	88 0b       	sbc	r24, r24
    1a40:	99 0b       	sbc	r25, r25
    1a42:	d7 d5       	rcall	.+2990   	; 0x25f2 <__floatsisf>
    1a44:	2b 01       	movw	r4, r22
    1a46:	3c 01       	movw	r6, r24
    1a48:	60 91 18 20 	lds	r22, 0x2018	; 0x802018 <przyspT_8>
    1a4c:	70 91 19 20 	lds	r23, 0x2019	; 0x802019 <przyspT_8+0x1>
    1a50:	80 91 1a 20 	lds	r24, 0x201A	; 0x80201a <przyspT_8+0x2>
    1a54:	90 91 1b 20 	lds	r25, 0x201B	; 0x80201b <przyspT_8+0x3>
    1a58:	9b 01       	movw	r18, r22
    1a5a:	ac 01       	movw	r20, r24
    1a5c:	c0 d4       	rcall	.+2432   	; 0x23de <__addsf3>
    1a5e:	9b 01       	movw	r18, r22
    1a60:	ac 01       	movw	r20, r24
    1a62:	c3 01       	movw	r24, r6
    1a64:	b2 01       	movw	r22, r4
    1a66:	26 d5       	rcall	.+2636   	; 0x24b4 <__divsf3>
    1a68:	69 83       	std	Y+1, r22	; 0x01
    1a6a:	7a 83       	std	Y+2, r23	; 0x02
    1a6c:	8b 83       	std	Y+3, r24	; 0x03
    1a6e:	9c 83       	std	Y+4, r25	; 0x04
    1a70:	60 91 84 20 	lds	r22, 0x2084	; 0x802084 <target_T>
    1a74:	70 91 85 20 	lds	r23, 0x2085	; 0x802085 <target_T+0x1>
    1a78:	07 2e       	mov	r0, r23
    1a7a:	00 0c       	add	r0, r0
    1a7c:	88 0b       	sbc	r24, r24
    1a7e:	99 0b       	sbc	r25, r25
    1a80:	b8 d5       	rcall	.+2928   	; 0x25f2 <__floatsisf>
    1a82:	2b 01       	movw	r4, r22
    1a84:	3c 01       	movw	r6, r24
    1a86:	20 e0       	ldi	r18, 0x00	; 0
    1a88:	30 e0       	ldi	r19, 0x00	; 0
    1a8a:	a9 01       	movw	r20, r18
    1a8c:	e9 d6       	rcall	.+3538   	; 0x2860 <__gesf2>
    1a8e:	88 23       	and	r24, r24
    1a90:	24 f4       	brge	.+8      	; 0x1a9a <profiler_k+0x1fe>
    1a92:	77 fa       	bst	r7, 7
    1a94:	70 94       	com	r7
    1a96:	77 f8       	bld	r7, 7
    1a98:	70 94       	com	r7
    1a9a:	a3 01       	movw	r20, r6
    1a9c:	92 01       	movw	r18, r4
    1a9e:	69 81       	ldd	r22, Y+1	; 0x01
    1aa0:	7a 81       	ldd	r23, Y+2	; 0x02
    1aa2:	8b 81       	ldd	r24, Y+3	; 0x03
    1aa4:	9c 81       	ldd	r25, Y+4	; 0x04
    1aa6:	dc d6       	rcall	.+3512   	; 0x2860 <__gesf2>
    1aa8:	88 23       	and	r24, r24
    1aaa:	64 f0       	brlt	.+24     	; 0x1ac4 <profiler_k+0x228>
    1aac:	82 e0       	ldi	r24, 0x02	; 2
    1aae:	90 e0       	ldi	r25, 0x00	; 0
    1ab0:	80 93 82 20 	sts	0x2082, r24	; 0x802082 <stan_T>
    1ab4:	90 93 83 20 	sts	0x2083, r25	; 0x802083 <stan_T+0x1>
    1ab8:	8b ef       	ldi	r24, 0xFB	; 251
    1aba:	9f ef       	ldi	r25, 0xFF	; 255
    1abc:	80 93 20 20 	sts	0x2020, r24	; 0x802020 <docelowa_T_8>
    1ac0:	90 93 21 20 	sts	0x2021, r25	; 0x802021 <docelowa_T_8+0x1>
    1ac4:	80 91 90 20 	lds	r24, 0x2090	; 0x802090 <aktualna_T_8>
    1ac8:	90 91 91 20 	lds	r25, 0x2091	; 0x802091 <aktualna_T_8+0x1>
    1acc:	20 91 20 20 	lds	r18, 0x2020	; 0x802020 <docelowa_T_8>
    1ad0:	30 91 21 20 	lds	r19, 0x2021	; 0x802021 <docelowa_T_8+0x1>
    1ad4:	28 17       	cp	r18, r24
    1ad6:	39 07       	cpc	r19, r25
    1ad8:	74 f4       	brge	.+28     	; 0x1af6 <profiler_k+0x25a>
    1ada:	40 91 1c 20 	lds	r20, 0x201C	; 0x80201c <przysp_8>
    1ade:	50 91 1d 20 	lds	r21, 0x201D	; 0x80201d <przysp_8+0x1>
    1ae2:	84 1b       	sub	r24, r20
    1ae4:	95 0b       	sbc	r25, r21
    1ae6:	82 17       	cp	r24, r18
    1ae8:	93 07       	cpc	r25, r19
    1aea:	dc f5       	brge	.+118    	; 0x1b62 <profiler_k+0x2c6>
    1aec:	20 93 90 20 	sts	0x2090, r18	; 0x802090 <aktualna_T_8>
    1af0:	30 93 91 20 	sts	0x2091, r19	; 0x802091 <aktualna_T_8+0x1>
    1af4:	15 c0       	rjmp	.+42     	; 0x1b20 <profiler_k+0x284>
    1af6:	82 17       	cp	r24, r18
    1af8:	93 07       	cpc	r25, r19
    1afa:	94 f4       	brge	.+36     	; 0x1b20 <profiler_k+0x284>
    1afc:	40 91 1c 20 	lds	r20, 0x201C	; 0x80201c <przysp_8>
    1b00:	50 91 1d 20 	lds	r21, 0x201D	; 0x80201d <przysp_8+0x1>
    1b04:	84 0f       	add	r24, r20
    1b06:	95 1f       	adc	r25, r21
    1b08:	28 17       	cp	r18, r24
    1b0a:	39 07       	cpc	r19, r25
    1b0c:	2c f0       	brlt	.+10     	; 0x1b18 <profiler_k+0x27c>
    1b0e:	80 93 90 20 	sts	0x2090, r24	; 0x802090 <aktualna_T_8>
    1b12:	90 93 91 20 	sts	0x2091, r25	; 0x802091 <aktualna_T_8+0x1>
    1b16:	04 c0       	rjmp	.+8      	; 0x1b20 <profiler_k+0x284>
    1b18:	20 93 90 20 	sts	0x2090, r18	; 0x802090 <aktualna_T_8>
    1b1c:	30 93 91 20 	sts	0x2091, r19	; 0x802091 <aktualna_T_8+0x1>
    1b20:	80 91 84 20 	lds	r24, 0x2084	; 0x802084 <target_T>
    1b24:	90 91 85 20 	lds	r25, 0x2085	; 0x802085 <target_T+0x1>
    1b28:	99 23       	and	r25, r25
    1b2a:	4c f0       	brlt	.+18     	; 0x1b3e <profiler_k+0x2a2>
    1b2c:	10 92 90 20 	sts	0x2090, r1	; 0x802090 <aktualna_T_8>
    1b30:	10 92 91 20 	sts	0x2091, r1	; 0x802091 <aktualna_T_8+0x1>
    1b34:	80 91 d8 26 	lds	r24, 0x26D8	; 0x8026d8 <moves_flags>
    1b38:	8d 7f       	andi	r24, 0xFD	; 253
    1b3a:	80 93 d8 26 	sts	0x26D8, r24	; 0x8026d8 <moves_flags>
    1b3e:	c8 18       	sub	r12, r8
    1b40:	d9 08       	sbc	r13, r9
    1b42:	80 91 84 20 	lds	r24, 0x2084	; 0x802084 <target_T>
    1b46:	90 91 85 20 	lds	r25, 0x2085	; 0x802085 <target_T+0x1>
    1b4a:	c8 0e       	add	r12, r24
    1b4c:	d9 1e       	adc	r13, r25
    1b4e:	c0 92 84 20 	sts	0x2084, r12	; 0x802084 <target_T>
    1b52:	d0 92 85 20 	sts	0x2085, r13	; 0x802085 <target_T+0x1>
    1b56:	0a c0       	rjmp	.+20     	; 0x1b6c <profiler_k+0x2d0>
    1b58:	80 93 90 20 	sts	0x2090, r24	; 0x802090 <aktualna_T_8>
    1b5c:	90 93 91 20 	sts	0x2091, r25	; 0x802091 <aktualna_T_8+0x1>
    1b60:	44 cf       	rjmp	.-376    	; 0x19ea <profiler_k+0x14e>
    1b62:	80 93 90 20 	sts	0x2090, r24	; 0x802090 <aktualna_T_8>
    1b66:	90 93 91 20 	sts	0x2091, r25	; 0x802091 <aktualna_T_8+0x1>
    1b6a:	da cf       	rjmp	.-76     	; 0x1b20 <profiler_k+0x284>
    1b6c:	24 96       	adiw	r28, 0x04	; 4
    1b6e:	cd bf       	out	0x3d, r28	; 61
    1b70:	de bf       	out	0x3e, r29	; 62
    1b72:	df 91       	pop	r29
    1b74:	cf 91       	pop	r28
    1b76:	ff 90       	pop	r15
    1b78:	ef 90       	pop	r14
    1b7a:	df 90       	pop	r13
    1b7c:	cf 90       	pop	r12
    1b7e:	bf 90       	pop	r11
    1b80:	af 90       	pop	r10
    1b82:	9f 90       	pop	r9
    1b84:	8f 90       	pop	r8
    1b86:	7f 90       	pop	r7
    1b88:	6f 90       	pop	r6
    1b8a:	5f 90       	pop	r5
    1b8c:	4f 90       	pop	r4
    1b8e:	08 95       	ret

00001b90 <reg>:
    1b90:	4f 92       	push	r4
    1b92:	5f 92       	push	r5
    1b94:	6f 92       	push	r6
    1b96:	7f 92       	push	r7
    1b98:	8f 92       	push	r8
    1b9a:	9f 92       	push	r9
    1b9c:	af 92       	push	r10
    1b9e:	bf 92       	push	r11
    1ba0:	cf 92       	push	r12
    1ba2:	df 92       	push	r13
    1ba4:	ef 92       	push	r14
    1ba6:	ff 92       	push	r15
    1ba8:	0f 93       	push	r16
    1baa:	1f 93       	push	r17
    1bac:	cf 93       	push	r28
    1bae:	df 93       	push	r29
    1bb0:	cd b7       	in	r28, 0x3d	; 61
    1bb2:	de b7       	in	r29, 0x3e	; 62
    1bb4:	64 97       	sbiw	r28, 0x14	; 20
    1bb6:	cd bf       	out	0x3d, r28	; 61
    1bb8:	de bf       	out	0x3e, r29	; 62
    1bba:	6d 83       	std	Y+5, r22	; 0x05
    1bbc:	7e 83       	std	Y+6, r23	; 0x06
    1bbe:	8f 83       	std	Y+7, r24	; 0x07
    1bc0:	98 87       	std	Y+8, r25	; 0x08
    1bc2:	29 8b       	std	Y+17, r18	; 0x11
    1bc4:	3a 8b       	std	Y+18, r19	; 0x12
    1bc6:	4b 8b       	std	Y+19, r20	; 0x13
    1bc8:	5c 8b       	std	Y+20, r21	; 0x14
    1bca:	e9 86       	std	Y+9, r14	; 0x09
    1bcc:	fa 86       	std	Y+10, r15	; 0x0a
    1bce:	0b 87       	std	Y+11, r16	; 0x0b
    1bd0:	1c 87       	std	Y+12, r17	; 0x0c
    1bd2:	60 91 86 20 	lds	r22, 0x2086	; 0x802086 <aktualna_V_8>
    1bd6:	70 91 87 20 	lds	r23, 0x2087	; 0x802087 <aktualna_V_8+0x1>
    1bda:	6c 19       	sub	r22, r12
    1bdc:	7d 09       	sbc	r23, r13
    1bde:	60 93 b9 26 	sts	0x26B9, r22	; 0x8026b9 <regV_aktE>
    1be2:	70 93 ba 26 	sts	0x26BA, r23	; 0x8026ba <regV_aktE+0x1>
    1be6:	07 2e       	mov	r0, r23
    1be8:	00 0c       	add	r0, r0
    1bea:	88 0b       	sbc	r24, r24
    1bec:	99 0b       	sbc	r25, r25
    1bee:	01 d5       	rcall	.+2562   	; 0x25f2 <__floatsisf>
    1bf0:	6b 01       	movw	r12, r22
    1bf2:	7c 01       	movw	r14, r24
    1bf4:	20 91 74 20 	lds	r18, 0x2074	; 0x802074 <enk_sumS>
    1bf8:	30 91 75 20 	lds	r19, 0x2075	; 0x802075 <enk_sumS+0x1>
    1bfc:	40 91 76 20 	lds	r20, 0x2076	; 0x802076 <enk_sumS+0x2>
    1c00:	50 91 77 20 	lds	r21, 0x2077	; 0x802077 <enk_sumS+0x3>
    1c04:	ec d3       	rcall	.+2008   	; 0x23de <__addsf3>
    1c06:	69 83       	std	Y+1, r22	; 0x01
    1c08:	7a 83       	std	Y+2, r23	; 0x02
    1c0a:	8b 83       	std	Y+3, r24	; 0x03
    1c0c:	9c 83       	std	Y+4, r25	; 0x04
    1c0e:	60 93 74 20 	sts	0x2074, r22	; 0x802074 <enk_sumS>
    1c12:	70 93 75 20 	sts	0x2075, r23	; 0x802075 <enk_sumS+0x1>
    1c16:	80 93 76 20 	sts	0x2076, r24	; 0x802076 <enk_sumS+0x2>
    1c1a:	90 93 77 20 	sts	0x2077, r25	; 0x802077 <enk_sumS+0x3>
    1c1e:	60 91 90 20 	lds	r22, 0x2090	; 0x802090 <aktualna_T_8>
    1c22:	70 91 91 20 	lds	r23, 0x2091	; 0x802091 <aktualna_T_8+0x1>
    1c26:	88 a9       	ldd	r24, Y+48	; 0x30
    1c28:	99 a9       	ldd	r25, Y+49	; 0x31
    1c2a:	68 1b       	sub	r22, r24
    1c2c:	79 0b       	sbc	r23, r25
    1c2e:	60 93 8c 20 	sts	0x208C, r22	; 0x80208c <regT_aktE>
    1c32:	70 93 8d 20 	sts	0x208D, r23	; 0x80208d <regT_aktE+0x1>
    1c36:	07 2e       	mov	r0, r23
    1c38:	00 0c       	add	r0, r0
    1c3a:	88 0b       	sbc	r24, r24
    1c3c:	99 0b       	sbc	r25, r25
    1c3e:	d9 d4       	rcall	.+2482   	; 0x25f2 <__floatsisf>
    1c40:	2b 01       	movw	r4, r22
    1c42:	3c 01       	movw	r6, r24
    1c44:	20 91 70 20 	lds	r18, 0x2070	; 0x802070 <enk_sumT>
    1c48:	30 91 71 20 	lds	r19, 0x2071	; 0x802071 <enk_sumT+0x1>
    1c4c:	40 91 72 20 	lds	r20, 0x2072	; 0x802072 <enk_sumT+0x2>
    1c50:	50 91 73 20 	lds	r21, 0x2073	; 0x802073 <enk_sumT+0x3>
    1c54:	c4 d3       	rcall	.+1928   	; 0x23de <__addsf3>
    1c56:	6d 87       	std	Y+13, r22	; 0x0d
    1c58:	7e 87       	std	Y+14, r23	; 0x0e
    1c5a:	8f 87       	std	Y+15, r24	; 0x0f
    1c5c:	98 8b       	std	Y+16, r25	; 0x10
    1c5e:	60 93 70 20 	sts	0x2070, r22	; 0x802070 <enk_sumT>
    1c62:	70 93 71 20 	sts	0x2071, r23	; 0x802071 <enk_sumT+0x1>
    1c66:	80 93 72 20 	sts	0x2072, r24	; 0x802072 <enk_sumT+0x2>
    1c6a:	90 93 73 20 	sts	0x2073, r25	; 0x802073 <enk_sumT+0x3>
    1c6e:	20 91 7c 20 	lds	r18, 0x207C	; 0x80207c <regV_prevE>
    1c72:	30 91 7d 20 	lds	r19, 0x207D	; 0x80207d <regV_prevE+0x1>
    1c76:	40 91 7e 20 	lds	r20, 0x207E	; 0x80207e <regV_prevE+0x2>
    1c7a:	50 91 7f 20 	lds	r21, 0x207F	; 0x80207f <regV_prevE+0x3>
    1c7e:	c7 01       	movw	r24, r14
    1c80:	b6 01       	movw	r22, r12
    1c82:	ac d3       	rcall	.+1880   	; 0x23dc <__subsf3>
    1c84:	29 85       	ldd	r18, Y+9	; 0x09
    1c86:	3a 85       	ldd	r19, Y+10	; 0x0a
    1c88:	4b 85       	ldd	r20, Y+11	; 0x0b
    1c8a:	5c 85       	ldd	r21, Y+12	; 0x0c
    1c8c:	ed d5       	rcall	.+3034   	; 0x2868 <__mulsf3>
    1c8e:	9b 01       	movw	r18, r22
    1c90:	ac 01       	movw	r20, r24
    1c92:	c7 01       	movw	r24, r14
    1c94:	b6 01       	movw	r22, r12
    1c96:	a3 d3       	rcall	.+1862   	; 0x23de <__addsf3>
    1c98:	69 87       	std	Y+9, r22	; 0x09
    1c9a:	7a 87       	std	Y+10, r23	; 0x0a
    1c9c:	8b 87       	std	Y+11, r24	; 0x0b
    1c9e:	9c 87       	std	Y+12, r25	; 0x0c
    1ca0:	29 89       	ldd	r18, Y+17	; 0x11
    1ca2:	3a 89       	ldd	r19, Y+18	; 0x12
    1ca4:	4b 89       	ldd	r20, Y+19	; 0x13
    1ca6:	5c 89       	ldd	r21, Y+20	; 0x14
    1ca8:	60 e0       	ldi	r22, 0x00	; 0
    1caa:	70 e0       	ldi	r23, 0x00	; 0
    1cac:	80 e8       	ldi	r24, 0x80	; 128
    1cae:	9f e3       	ldi	r25, 0x3F	; 63
    1cb0:	01 d4       	rcall	.+2050   	; 0x24b4 <__divsf3>
    1cb2:	9b 01       	movw	r18, r22
    1cb4:	ac 01       	movw	r20, r24
    1cb6:	69 81       	ldd	r22, Y+1	; 0x01
    1cb8:	7a 81       	ldd	r23, Y+2	; 0x02
    1cba:	8b 81       	ldd	r24, Y+3	; 0x03
    1cbc:	9c 81       	ldd	r25, Y+4	; 0x04
    1cbe:	d4 d5       	rcall	.+2984   	; 0x2868 <__mulsf3>
    1cc0:	9b 01       	movw	r18, r22
    1cc2:	ac 01       	movw	r20, r24
    1cc4:	69 85       	ldd	r22, Y+9	; 0x09
    1cc6:	7a 85       	ldd	r23, Y+10	; 0x0a
    1cc8:	8b 85       	ldd	r24, Y+11	; 0x0b
    1cca:	9c 85       	ldd	r25, Y+12	; 0x0c
    1ccc:	88 d3       	rcall	.+1808   	; 0x23de <__addsf3>
    1cce:	2d 81       	ldd	r18, Y+5	; 0x05
    1cd0:	3e 81       	ldd	r19, Y+6	; 0x06
    1cd2:	4f 81       	ldd	r20, Y+7	; 0x07
    1cd4:	58 85       	ldd	r21, Y+8	; 0x08
    1cd6:	c8 d5       	rcall	.+2960   	; 0x2868 <__mulsf3>
    1cd8:	69 83       	std	Y+1, r22	; 0x01
    1cda:	7a 83       	std	Y+2, r23	; 0x02
    1cdc:	8b 83       	std	Y+3, r24	; 0x03
    1cde:	9c 83       	std	Y+4, r25	; 0x04
    1ce0:	20 91 78 20 	lds	r18, 0x2078	; 0x802078 <regT_prevE>
    1ce4:	30 91 79 20 	lds	r19, 0x2079	; 0x802079 <regT_prevE+0x1>
    1ce8:	40 91 7a 20 	lds	r20, 0x207A	; 0x80207a <regT_prevE+0x2>
    1cec:	50 91 7b 20 	lds	r21, 0x207B	; 0x80207b <regT_prevE+0x3>
    1cf0:	c3 01       	movw	r24, r6
    1cf2:	b2 01       	movw	r22, r4
    1cf4:	73 d3       	rcall	.+1766   	; 0x23dc <__subsf3>
    1cf6:	2c a5       	ldd	r18, Y+44	; 0x2c
    1cf8:	3d a5       	ldd	r19, Y+45	; 0x2d
    1cfa:	4e a5       	ldd	r20, Y+46	; 0x2e
    1cfc:	5f a5       	ldd	r21, Y+47	; 0x2f
    1cfe:	b4 d5       	rcall	.+2920   	; 0x2868 <__mulsf3>
    1d00:	9b 01       	movw	r18, r22
    1d02:	ac 01       	movw	r20, r24
    1d04:	c3 01       	movw	r24, r6
    1d06:	b2 01       	movw	r22, r4
    1d08:	6a d3       	rcall	.+1748   	; 0x23de <__addsf3>
    1d0a:	6d 83       	std	Y+5, r22	; 0x05
    1d0c:	7e 83       	std	Y+6, r23	; 0x06
    1d0e:	8f 83       	std	Y+7, r24	; 0x07
    1d10:	98 87       	std	Y+8, r25	; 0x08
    1d12:	28 a5       	ldd	r18, Y+40	; 0x28
    1d14:	39 a5       	ldd	r19, Y+41	; 0x29
    1d16:	4a a5       	ldd	r20, Y+42	; 0x2a
    1d18:	5b a5       	ldd	r21, Y+43	; 0x2b
    1d1a:	60 e0       	ldi	r22, 0x00	; 0
    1d1c:	70 e0       	ldi	r23, 0x00	; 0
    1d1e:	80 e8       	ldi	r24, 0x80	; 128
    1d20:	9f e3       	ldi	r25, 0x3F	; 63
    1d22:	c8 d3       	rcall	.+1936   	; 0x24b4 <__divsf3>
    1d24:	9b 01       	movw	r18, r22
    1d26:	ac 01       	movw	r20, r24
    1d28:	6d 85       	ldd	r22, Y+13	; 0x0d
    1d2a:	7e 85       	ldd	r23, Y+14	; 0x0e
    1d2c:	8f 85       	ldd	r24, Y+15	; 0x0f
    1d2e:	98 89       	ldd	r25, Y+16	; 0x10
    1d30:	9b d5       	rcall	.+2870   	; 0x2868 <__mulsf3>
    1d32:	9b 01       	movw	r18, r22
    1d34:	ac 01       	movw	r20, r24
    1d36:	6d 81       	ldd	r22, Y+5	; 0x05
    1d38:	7e 81       	ldd	r23, Y+6	; 0x06
    1d3a:	8f 81       	ldd	r24, Y+7	; 0x07
    1d3c:	98 85       	ldd	r25, Y+8	; 0x08
    1d3e:	4f d3       	rcall	.+1694   	; 0x23de <__addsf3>
    1d40:	a5 01       	movw	r20, r10
    1d42:	94 01       	movw	r18, r8
    1d44:	91 d5       	rcall	.+2850   	; 0x2868 <__mulsf3>
    1d46:	4b 01       	movw	r8, r22
    1d48:	5c 01       	movw	r10, r24
    1d4a:	9b 01       	movw	r18, r22
    1d4c:	ac 01       	movw	r20, r24
    1d4e:	69 81       	ldd	r22, Y+1	; 0x01
    1d50:	7a 81       	ldd	r23, Y+2	; 0x02
    1d52:	8b 81       	ldd	r24, Y+3	; 0x03
    1d54:	9c 81       	ldd	r25, Y+4	; 0x04
    1d56:	43 d3       	rcall	.+1670   	; 0x23de <__addsf3>
    1d58:	15 d4       	rcall	.+2090   	; 0x2584 <__fixsfsi>
    1d5a:	60 93 8a 20 	sts	0x208A, r22	; 0x80208a <reg_newPWML>
    1d5e:	70 93 8b 20 	sts	0x208B, r23	; 0x80208b <reg_newPWML+0x1>
    1d62:	a5 01       	movw	r20, r10
    1d64:	94 01       	movw	r18, r8
    1d66:	69 81       	ldd	r22, Y+1	; 0x01
    1d68:	7a 81       	ldd	r23, Y+2	; 0x02
    1d6a:	8b 81       	ldd	r24, Y+3	; 0x03
    1d6c:	9c 81       	ldd	r25, Y+4	; 0x04
    1d6e:	36 d3       	rcall	.+1644   	; 0x23dc <__subsf3>
    1d70:	09 d4       	rcall	.+2066   	; 0x2584 <__fixsfsi>
    1d72:	60 93 88 20 	sts	0x2088, r22	; 0x802088 <reg_newPWMP>
    1d76:	70 93 89 20 	sts	0x2089, r23	; 0x802089 <reg_newPWMP+0x1>
    1d7a:	c0 92 7c 20 	sts	0x207C, r12	; 0x80207c <regV_prevE>
    1d7e:	d0 92 7d 20 	sts	0x207D, r13	; 0x80207d <regV_prevE+0x1>
    1d82:	e0 92 7e 20 	sts	0x207E, r14	; 0x80207e <regV_prevE+0x2>
    1d86:	f0 92 7f 20 	sts	0x207F, r15	; 0x80207f <regV_prevE+0x3>
    1d8a:	40 92 78 20 	sts	0x2078, r4	; 0x802078 <regT_prevE>
    1d8e:	50 92 79 20 	sts	0x2079, r5	; 0x802079 <regT_prevE+0x1>
    1d92:	60 92 7a 20 	sts	0x207A, r6	; 0x80207a <regT_prevE+0x2>
    1d96:	70 92 7b 20 	sts	0x207B, r7	; 0x80207b <regT_prevE+0x3>
    1d9a:	64 96       	adiw	r28, 0x14	; 20
    1d9c:	cd bf       	out	0x3d, r28	; 61
    1d9e:	de bf       	out	0x3e, r29	; 62
    1da0:	df 91       	pop	r29
    1da2:	cf 91       	pop	r28
    1da4:	1f 91       	pop	r17
    1da6:	0f 91       	pop	r16
    1da8:	ff 90       	pop	r15
    1daa:	ef 90       	pop	r14
    1dac:	df 90       	pop	r13
    1dae:	cf 90       	pop	r12
    1db0:	bf 90       	pop	r11
    1db2:	af 90       	pop	r10
    1db4:	9f 90       	pop	r9
    1db6:	8f 90       	pop	r8
    1db8:	7f 90       	pop	r7
    1dba:	6f 90       	pop	r6
    1dbc:	5f 90       	pop	r5
    1dbe:	4f 90       	pop	r4
    1dc0:	08 95       	ret

00001dc2 <go>:
    1dc2:	2f 92       	push	r2
    1dc4:	3f 92       	push	r3
    1dc6:	4f 92       	push	r4
    1dc8:	5f 92       	push	r5
    1dca:	6f 92       	push	r6
    1dcc:	7f 92       	push	r7
    1dce:	8f 92       	push	r8
    1dd0:	9f 92       	push	r9
    1dd2:	af 92       	push	r10
    1dd4:	bf 92       	push	r11
    1dd6:	cf 92       	push	r12
    1dd8:	df 92       	push	r13
    1dda:	ef 92       	push	r14
    1ddc:	ff 92       	push	r15
    1dde:	0f 93       	push	r16
    1de0:	1f 93       	push	r17
    1de2:	cf 93       	push	r28
    1de4:	df 93       	push	r29
    1de6:	cd b7       	in	r28, 0x3d	; 61
    1de8:	de b7       	in	r29, 0x3e	; 62
    1dea:	2c 97       	sbiw	r28, 0x0c	; 12
    1dec:	cd bf       	out	0x3d, r28	; 61
    1dee:	de bf       	out	0x3e, r29	; 62
    1df0:	69 83       	std	Y+1, r22	; 0x01
    1df2:	7a 83       	std	Y+2, r23	; 0x02
    1df4:	8b 83       	std	Y+3, r24	; 0x03
    1df6:	9c 83       	std	Y+4, r25	; 0x04
    1df8:	2d 83       	std	Y+5, r18	; 0x05
    1dfa:	3e 83       	std	Y+6, r19	; 0x06
    1dfc:	4f 83       	std	Y+7, r20	; 0x07
    1dfe:	58 87       	std	Y+8, r21	; 0x08
    1e00:	e9 86       	std	Y+9, r14	; 0x09
    1e02:	fa 86       	std	Y+10, r15	; 0x0a
    1e04:	0b 87       	std	Y+11, r16	; 0x0b
    1e06:	1c 87       	std	Y+12, r17	; 0x0c
    1e08:	16 01       	movw	r2, r12
    1e0a:	1a a1       	ldd	r17, Y+34	; 0x22
    1e0c:	0b a1       	ldd	r16, Y+35	; 0x23
    1e0e:	fc a0       	ldd	r15, Y+36	; 0x24
    1e10:	ed a0       	ldd	r14, Y+37	; 0x25
    1e12:	de a0       	ldd	r13, Y+38	; 0x26
    1e14:	cf a0       	ldd	r12, Y+39	; 0x27
    1e16:	78 a4       	ldd	r7, Y+40	; 0x28
    1e18:	69 a4       	ldd	r6, Y+41	; 0x29
    1e1a:	5a a4       	ldd	r5, Y+42	; 0x2a
    1e1c:	4b a4       	ldd	r4, Y+43	; 0x2b
    1e1e:	28 a9       	ldd	r18, Y+48	; 0x30
    1e20:	39 a9       	ldd	r19, Y+49	; 0x31
    1e22:	4a a9       	ldd	r20, Y+50	; 0x32
    1e24:	5b a9       	ldd	r21, Y+51	; 0x33
    1e26:	6c a5       	ldd	r22, Y+44	; 0x2c
    1e28:	7d a5       	ldd	r23, Y+45	; 0x2d
    1e2a:	8e a5       	ldd	r24, Y+46	; 0x2e
    1e2c:	9f a5       	ldd	r25, Y+47	; 0x2f
    1e2e:	36 dd       	rcall	.-1428   	; 0x189c <profiler_k>
    1e30:	28 a9       	ldd	r18, Y+48	; 0x30
    1e32:	39 a9       	ldd	r19, Y+49	; 0x31
    1e34:	4a a9       	ldd	r20, Y+50	; 0x32
    1e36:	5b a9       	ldd	r21, Y+51	; 0x33
    1e38:	6c a5       	ldd	r22, Y+44	; 0x2c
    1e3a:	7d a5       	ldd	r23, Y+45	; 0x2d
    1e3c:	8e a5       	ldd	r24, Y+46	; 0x2e
    1e3e:	9f a5       	ldd	r25, Y+47	; 0x2f
    1e40:	9b db       	rcall	.-2250   	; 0x1578 <profiler>
    1e42:	4f 92       	push	r4
    1e44:	5f 92       	push	r5
    1e46:	6f 92       	push	r6
    1e48:	7f 92       	push	r7
    1e4a:	cf 92       	push	r12
    1e4c:	df 92       	push	r13
    1e4e:	ef 92       	push	r14
    1e50:	ff 92       	push	r15
    1e52:	0f 93       	push	r16
    1e54:	1f 93       	push	r17
    1e56:	61 01       	movw	r12, r2
    1e58:	e9 84       	ldd	r14, Y+9	; 0x09
    1e5a:	fa 84       	ldd	r15, Y+10	; 0x0a
    1e5c:	0b 85       	ldd	r16, Y+11	; 0x0b
    1e5e:	1c 85       	ldd	r17, Y+12	; 0x0c
    1e60:	2d 81       	ldd	r18, Y+5	; 0x05
    1e62:	3e 81       	ldd	r19, Y+6	; 0x06
    1e64:	4f 81       	ldd	r20, Y+7	; 0x07
    1e66:	58 85       	ldd	r21, Y+8	; 0x08
    1e68:	69 81       	ldd	r22, Y+1	; 0x01
    1e6a:	7a 81       	ldd	r23, Y+2	; 0x02
    1e6c:	8b 81       	ldd	r24, Y+3	; 0x03
    1e6e:	9c 81       	ldd	r25, Y+4	; 0x04
    1e70:	8f de       	rcall	.-738    	; 0x1b90 <reg>
    1e72:	80 91 8a 20 	lds	r24, 0x208A	; 0x80208a <reg_newPWML>
    1e76:	90 91 8b 20 	lds	r25, 0x208B	; 0x80208b <reg_newPWML+0x1>
    1e7a:	cd bf       	out	0x3d, r28	; 61
    1e7c:	de bf       	out	0x3e, r29	; 62
    1e7e:	99 23       	and	r25, r25
    1e80:	24 f0       	brlt	.+8      	; 0x1e8a <go+0xc8>
    1e82:	62 e0       	ldi	r22, 0x02	; 2
    1e84:	0e 94 9d 06 	call	0xd3a	; 0xd3a <motorL>
    1e88:	04 c0       	rjmp	.+8      	; 0x1e92 <go+0xd0>
    1e8a:	63 e0       	ldi	r22, 0x03	; 3
    1e8c:	81 95       	neg	r24
    1e8e:	0e 94 9d 06 	call	0xd3a	; 0xd3a <motorL>
    1e92:	80 91 88 20 	lds	r24, 0x2088	; 0x802088 <reg_newPWMP>
    1e96:	90 91 89 20 	lds	r25, 0x2089	; 0x802089 <reg_newPWMP+0x1>
    1e9a:	99 23       	and	r25, r25
    1e9c:	24 f0       	brlt	.+8      	; 0x1ea6 <go+0xe4>
    1e9e:	63 e0       	ldi	r22, 0x03	; 3
    1ea0:	0e 94 6d 06 	call	0xcda	; 0xcda <motorR>
    1ea4:	04 c0       	rjmp	.+8      	; 0x1eae <go+0xec>
    1ea6:	62 e0       	ldi	r22, 0x02	; 2
    1ea8:	81 95       	neg	r24
    1eaa:	0e 94 6d 06 	call	0xcda	; 0xcda <motorR>
    1eae:	2c 96       	adiw	r28, 0x0c	; 12
    1eb0:	cd bf       	out	0x3d, r28	; 61
    1eb2:	de bf       	out	0x3e, r29	; 62
    1eb4:	df 91       	pop	r29
    1eb6:	cf 91       	pop	r28
    1eb8:	1f 91       	pop	r17
    1eba:	0f 91       	pop	r16
    1ebc:	ff 90       	pop	r15
    1ebe:	ef 90       	pop	r14
    1ec0:	df 90       	pop	r13
    1ec2:	cf 90       	pop	r12
    1ec4:	bf 90       	pop	r11
    1ec6:	af 90       	pop	r10
    1ec8:	9f 90       	pop	r9
    1eca:	8f 90       	pop	r8
    1ecc:	7f 90       	pop	r7
    1ece:	6f 90       	pop	r6
    1ed0:	5f 90       	pop	r5
    1ed2:	4f 90       	pop	r4
    1ed4:	3f 90       	pop	r3
    1ed6:	2f 90       	pop	r2
    1ed8:	08 95       	ret

00001eda <forward>:
    1eda:	bc 01       	movw	r22, r24
    1edc:	80 91 d8 26 	lds	r24, 0x26D8	; 0x8026d8 <moves_flags>
    1ee0:	81 60       	ori	r24, 0x01	; 1
    1ee2:	80 93 d8 26 	sts	0x26D8, r24	; 0x8026d8 <moves_flags>
    1ee6:	81 e0       	ldi	r24, 0x01	; 1
    1ee8:	90 e0       	ldi	r25, 0x00	; 0
    1eea:	80 93 c7 26 	sts	0x26C7, r24	; 0x8026c7 <flaga_czuj>
    1eee:	90 93 c8 26 	sts	0x26C8, r25	; 0x8026c8 <flaga_czuj+0x1>
    1ef2:	07 2e       	mov	r0, r23
    1ef4:	00 0c       	add	r0, r0
    1ef6:	88 0b       	sbc	r24, r24
    1ef8:	99 0b       	sbc	r25, r25
    1efa:	7b d3       	rcall	.+1782   	; 0x25f2 <__floatsisf>
    1efc:	26 e8       	ldi	r18, 0x86	; 134
    1efe:	32 ee       	ldi	r19, 0xE2	; 226
    1f00:	42 e4       	ldi	r20, 0x42	; 66
    1f02:	51 e4       	ldi	r21, 0x41	; 65
    1f04:	b1 d4       	rcall	.+2402   	; 0x2868 <__mulsf3>
    1f06:	3e d3       	rcall	.+1660   	; 0x2584 <__fixsfsi>
    1f08:	60 93 8e 20 	sts	0x208E, r22	; 0x80208e <target_S>
    1f0c:	70 93 8f 20 	sts	0x208F, r23	; 0x80208f <target_S+0x1>
    1f10:	10 92 84 20 	sts	0x2084, r1	; 0x802084 <target_T>
    1f14:	10 92 85 20 	sts	0x2085, r1	; 0x802085 <target_T+0x1>
    1f18:	10 92 20 20 	sts	0x2020, r1	; 0x802020 <docelowa_T_8>
    1f1c:	10 92 21 20 	sts	0x2021, r1	; 0x802021 <docelowa_T_8+0x1>
    1f20:	8a e0       	ldi	r24, 0x0A	; 10
    1f22:	90 e0       	ldi	r25, 0x00	; 0
    1f24:	80 93 22 20 	sts	0x2022, r24	; 0x802022 <docelowa_V_8>
    1f28:	90 93 23 20 	sts	0x2023, r25	; 0x802023 <docelowa_V_8+0x1>
    1f2c:	10 92 b9 26 	sts	0x26B9, r1	; 0x8026b9 <regV_aktE>
    1f30:	10 92 ba 26 	sts	0x26BA, r1	; 0x8026ba <regV_aktE+0x1>
    1f34:	10 92 74 20 	sts	0x2074, r1	; 0x802074 <enk_sumS>
    1f38:	10 92 75 20 	sts	0x2075, r1	; 0x802075 <enk_sumS+0x1>
    1f3c:	10 92 76 20 	sts	0x2076, r1	; 0x802076 <enk_sumS+0x2>
    1f40:	10 92 77 20 	sts	0x2077, r1	; 0x802077 <enk_sumS+0x3>
    1f44:	10 92 8c 20 	sts	0x208C, r1	; 0x80208c <regT_aktE>
    1f48:	10 92 8d 20 	sts	0x208D, r1	; 0x80208d <regT_aktE+0x1>
    1f4c:	10 92 70 20 	sts	0x2070, r1	; 0x802070 <enk_sumT>
    1f50:	10 92 71 20 	sts	0x2071, r1	; 0x802071 <enk_sumT+0x1>
    1f54:	10 92 72 20 	sts	0x2072, r1	; 0x802072 <enk_sumT+0x2>
    1f58:	10 92 73 20 	sts	0x2073, r1	; 0x802073 <enk_sumT+0x3>
    1f5c:	10 92 7c 20 	sts	0x207C, r1	; 0x80207c <regV_prevE>
    1f60:	10 92 7d 20 	sts	0x207D, r1	; 0x80207d <regV_prevE+0x1>
    1f64:	10 92 7e 20 	sts	0x207E, r1	; 0x80207e <regV_prevE+0x2>
    1f68:	10 92 7f 20 	sts	0x207F, r1	; 0x80207f <regV_prevE+0x3>
    1f6c:	10 92 78 20 	sts	0x2078, r1	; 0x802078 <regT_prevE>
    1f70:	10 92 79 20 	sts	0x2079, r1	; 0x802079 <regT_prevE+0x1>
    1f74:	10 92 7a 20 	sts	0x207A, r1	; 0x80207a <regT_prevE+0x2>
    1f78:	10 92 7b 20 	sts	0x207B, r1	; 0x80207b <regT_prevE+0x3>
    1f7c:	10 92 80 20 	sts	0x2080, r1	; 0x802080 <stan>
    1f80:	10 92 81 20 	sts	0x2081, r1	; 0x802081 <stan+0x1>
    1f84:	10 92 82 20 	sts	0x2082, r1	; 0x802082 <stan_T>
    1f88:	10 92 83 20 	sts	0x2083, r1	; 0x802083 <stan_T+0x1>
    1f8c:	8f e3       	ldi	r24, 0x3F	; 63
    1f8e:	9f e1       	ldi	r25, 0x1F	; 31
    1f90:	01 97       	sbiw	r24, 0x01	; 1
    1f92:	f1 f7       	brne	.-4      	; 0x1f90 <forward+0xb6>
    1f94:	00 c0       	rjmp	.+0      	; 0x1f96 <forward+0xbc>
    1f96:	00 00       	nop
    1f98:	80 91 d8 26 	lds	r24, 0x26D8	; 0x8026d8 <moves_flags>
    1f9c:	81 11       	cpse	r24, r1
    1f9e:	f6 cf       	rjmp	.-20     	; 0x1f8c <forward+0xb2>
    1fa0:	08 95       	ret

00001fa2 <rotateAngle>:
    1fa2:	cf 92       	push	r12
    1fa4:	df 92       	push	r13
    1fa6:	ef 92       	push	r14
    1fa8:	ff 92       	push	r15
    1faa:	6b 01       	movw	r12, r22
    1fac:	7c 01       	movw	r14, r24
    1fae:	10 92 c7 26 	sts	0x26C7, r1	; 0x8026c7 <flaga_czuj>
    1fb2:	10 92 c8 26 	sts	0x26C8, r1	; 0x8026c8 <flaga_czuj+0x1>
    1fb6:	26 e4       	ldi	r18, 0x46	; 70
    1fb8:	37 e0       	ldi	r19, 0x07	; 7
    1fba:	49 e0       	ldi	r20, 0x09	; 9
    1fbc:	54 e4       	ldi	r21, 0x44	; 68
    1fbe:	54 d4       	rcall	.+2216   	; 0x2868 <__mulsf3>
    1fc0:	e1 d2       	rcall	.+1474   	; 0x2584 <__fixsfsi>
    1fc2:	60 93 84 20 	sts	0x2084, r22	; 0x802084 <target_T>
    1fc6:	70 93 85 20 	sts	0x2085, r23	; 0x802085 <target_T+0x1>
    1fca:	80 91 d8 26 	lds	r24, 0x26D8	; 0x8026d8 <moves_flags>
    1fce:	82 60       	ori	r24, 0x02	; 2
    1fd0:	80 93 d8 26 	sts	0x26D8, r24	; 0x8026d8 <moves_flags>
    1fd4:	20 e0       	ldi	r18, 0x00	; 0
    1fd6:	30 e0       	ldi	r19, 0x00	; 0
    1fd8:	a9 01       	movw	r20, r18
    1fda:	c7 01       	movw	r24, r14
    1fdc:	b6 01       	movw	r22, r12
    1fde:	40 d4       	rcall	.+2176   	; 0x2860 <__gesf2>
    1fe0:	18 16       	cp	r1, r24
    1fe2:	3c f4       	brge	.+14     	; 0x1ff2 <rotateAngle+0x50>
    1fe4:	8a e0       	ldi	r24, 0x0A	; 10
    1fe6:	90 e0       	ldi	r25, 0x00	; 0
    1fe8:	80 93 20 20 	sts	0x2020, r24	; 0x802020 <docelowa_T_8>
    1fec:	90 93 21 20 	sts	0x2021, r25	; 0x802021 <docelowa_T_8+0x1>
    1ff0:	13 c0       	rjmp	.+38     	; 0x2018 <rotateAngle+0x76>
    1ff2:	20 e0       	ldi	r18, 0x00	; 0
    1ff4:	30 e0       	ldi	r19, 0x00	; 0
    1ff6:	a9 01       	movw	r20, r18
    1ff8:	c7 01       	movw	r24, r14
    1ffa:	b6 01       	movw	r22, r12
    1ffc:	54 d2       	rcall	.+1192   	; 0x24a6 <__cmpsf2>
    1ffe:	81 11       	cpse	r24, r1
    2000:	05 c0       	rjmp	.+10     	; 0x200c <rotateAngle+0x6a>
    2002:	10 92 20 20 	sts	0x2020, r1	; 0x802020 <docelowa_T_8>
    2006:	10 92 21 20 	sts	0x2021, r1	; 0x802021 <docelowa_T_8+0x1>
    200a:	06 c0       	rjmp	.+12     	; 0x2018 <rotateAngle+0x76>
    200c:	86 ef       	ldi	r24, 0xF6	; 246
    200e:	9f ef       	ldi	r25, 0xFF	; 255
    2010:	80 93 20 20 	sts	0x2020, r24	; 0x802020 <docelowa_T_8>
    2014:	90 93 21 20 	sts	0x2021, r25	; 0x802021 <docelowa_T_8+0x1>
    2018:	10 92 22 20 	sts	0x2022, r1	; 0x802022 <docelowa_V_8>
    201c:	10 92 23 20 	sts	0x2023, r1	; 0x802023 <docelowa_V_8+0x1>
    2020:	10 92 8e 20 	sts	0x208E, r1	; 0x80208e <target_S>
    2024:	10 92 8f 20 	sts	0x208F, r1	; 0x80208f <target_S+0x1>
    2028:	10 92 b9 26 	sts	0x26B9, r1	; 0x8026b9 <regV_aktE>
    202c:	10 92 ba 26 	sts	0x26BA, r1	; 0x8026ba <regV_aktE+0x1>
    2030:	10 92 74 20 	sts	0x2074, r1	; 0x802074 <enk_sumS>
    2034:	10 92 75 20 	sts	0x2075, r1	; 0x802075 <enk_sumS+0x1>
    2038:	10 92 76 20 	sts	0x2076, r1	; 0x802076 <enk_sumS+0x2>
    203c:	10 92 77 20 	sts	0x2077, r1	; 0x802077 <enk_sumS+0x3>
    2040:	10 92 8c 20 	sts	0x208C, r1	; 0x80208c <regT_aktE>
    2044:	10 92 8d 20 	sts	0x208D, r1	; 0x80208d <regT_aktE+0x1>
    2048:	10 92 70 20 	sts	0x2070, r1	; 0x802070 <enk_sumT>
    204c:	10 92 71 20 	sts	0x2071, r1	; 0x802071 <enk_sumT+0x1>
    2050:	10 92 72 20 	sts	0x2072, r1	; 0x802072 <enk_sumT+0x2>
    2054:	10 92 73 20 	sts	0x2073, r1	; 0x802073 <enk_sumT+0x3>
    2058:	10 92 7c 20 	sts	0x207C, r1	; 0x80207c <regV_prevE>
    205c:	10 92 7d 20 	sts	0x207D, r1	; 0x80207d <regV_prevE+0x1>
    2060:	10 92 7e 20 	sts	0x207E, r1	; 0x80207e <regV_prevE+0x2>
    2064:	10 92 7f 20 	sts	0x207F, r1	; 0x80207f <regV_prevE+0x3>
    2068:	10 92 78 20 	sts	0x2078, r1	; 0x802078 <regT_prevE>
    206c:	10 92 79 20 	sts	0x2079, r1	; 0x802079 <regT_prevE+0x1>
    2070:	10 92 7a 20 	sts	0x207A, r1	; 0x80207a <regT_prevE+0x2>
    2074:	10 92 7b 20 	sts	0x207B, r1	; 0x80207b <regT_prevE+0x3>
    2078:	10 92 82 20 	sts	0x2082, r1	; 0x802082 <stan_T>
    207c:	10 92 83 20 	sts	0x2083, r1	; 0x802083 <stan_T+0x1>
    2080:	10 92 80 20 	sts	0x2080, r1	; 0x802080 <stan>
    2084:	10 92 81 20 	sts	0x2081, r1	; 0x802081 <stan+0x1>
    2088:	80 91 d8 26 	lds	r24, 0x26D8	; 0x8026d8 <moves_flags>
    208c:	88 23       	and	r24, r24
    208e:	51 f0       	breq	.+20     	; 0x20a4 <rotateAngle+0x102>
    2090:	8f e3       	ldi	r24, 0x3F	; 63
    2092:	9f e1       	ldi	r25, 0x1F	; 31
    2094:	01 97       	sbiw	r24, 0x01	; 1
    2096:	f1 f7       	brne	.-4      	; 0x2094 <rotateAngle+0xf2>
    2098:	00 c0       	rjmp	.+0      	; 0x209a <rotateAngle+0xf8>
    209a:	00 00       	nop
    209c:	80 91 d8 26 	lds	r24, 0x26D8	; 0x8026d8 <moves_flags>
    20a0:	81 11       	cpse	r24, r1
    20a2:	f6 cf       	rjmp	.-20     	; 0x2090 <rotateAngle+0xee>
    20a4:	ff 90       	pop	r15
    20a6:	ef 90       	pop	r14
    20a8:	df 90       	pop	r13
    20aa:	cf 90       	pop	r12
    20ac:	08 95       	ret

000020ae <prestartSetUp>:

void prestartSetUp(){
		setall();
    20ae:	0e 94 db 06 	call	0xdb6	; 0xdb6 <setall>
		par.dir = 0;
    20b2:	e5 ea       	ldi	r30, 0xA5	; 165
    20b4:	f6 e2       	ldi	r31, 0x26	; 38
    20b6:	10 82       	st	Z, r1
    20b8:	11 82       	std	Z+1, r1	; 0x01
    20ba:	12 82       	std	Z+2, r1	; 0x02
    20bc:	13 82       	std	Z+3, r1	; 0x03
		par.posx = 0;
    20be:	14 82       	std	Z+4, r1	; 0x04
    20c0:	15 82       	std	Z+5, r1	; 0x05
    20c2:	16 82       	std	Z+6, r1	; 0x06
    20c4:	17 82       	std	Z+7, r1	; 0x07
		par.posy = 0;
    20c6:	10 86       	std	Z+8, r1	; 0x08
    20c8:	11 86       	std	Z+9, r1	; 0x09
    20ca:	12 86       	std	Z+10, r1	; 0x0a
    20cc:	13 86       	std	Z+11, r1	; 0x0b
		par.gyr=0;
    20ce:	14 86       	std	Z+12, r1	; 0x0c
    20d0:	15 86       	std	Z+13, r1	; 0x0d
    20d2:	16 86       	std	Z+14, r1	; 0x0e
    20d4:	17 86       	std	Z+15, r1	; 0x0f
		enkl=0;
    20d6:	10 92 cf 26 	sts	0x26CF, r1	; 0x8026cf <enkl>
    20da:	10 92 d0 26 	sts	0x26D0, r1	; 0x8026d0 <enkl+0x1>
    20de:	10 92 d1 26 	sts	0x26D1, r1	; 0x8026d1 <enkl+0x2>
    20e2:	10 92 d2 26 	sts	0x26D2, r1	; 0x8026d2 <enkl+0x3>
		enkr=0;
    20e6:	10 92 cb 26 	sts	0x26CB, r1	; 0x8026cb <enkr>
    20ea:	10 92 cc 26 	sts	0x26CC, r1	; 0x8026cc <enkr+0x1>
    20ee:	10 92 cd 26 	sts	0x26CD, r1	; 0x8026cd <enkr+0x2>
    20f2:	10 92 ce 26 	sts	0x26CE, r1	; 0x8026ce <enkr+0x3>
    20f6:	08 95       	ret

000020f8 <get_params_enc>:
#include "pos_dir_enc.h"


struct par_enc get_params_enc(int16_t enkl,int16_t enkr,struct par_enc par){
    20f8:	4f 92       	push	r4
    20fa:	5f 92       	push	r5
    20fc:	6f 92       	push	r6
    20fe:	7f 92       	push	r7
    2100:	8f 92       	push	r8
    2102:	9f 92       	push	r9
    2104:	af 92       	push	r10
    2106:	bf 92       	push	r11
    2108:	cf 92       	push	r12
    210a:	df 92       	push	r13
    210c:	ef 92       	push	r14
    210e:	ff 92       	push	r15
    2110:	0f 93       	push	r16
    2112:	1f 93       	push	r17
    2114:	cf 93       	push	r28
    2116:	df 93       	push	r29
    2118:	cd b7       	in	r28, 0x3d	; 61
    211a:	de b7       	in	r29, 0x3e	; 62
    211c:	64 97       	sbiw	r28, 0x14	; 20
    211e:	cd bf       	out	0x3d, r28	; 61
    2120:	de bf       	out	0x3e, r29	; 62
    2122:	8c 01       	movw	r16, r24
    2124:	7a 01       	movw	r14, r20
    2126:	88 a4       	ldd	r8, Y+40	; 0x28
    2128:	99 a4       	ldd	r9, Y+41	; 0x29
    212a:	aa a4       	ldd	r10, Y+42	; 0x2a
    212c:	bb a4       	ldd	r11, Y+43	; 0x2b
    212e:	8c a5       	ldd	r24, Y+44	; 0x2c
    2130:	9d a5       	ldd	r25, Y+45	; 0x2d
    2132:	ae a5       	ldd	r26, Y+46	; 0x2e
    2134:	bf a5       	ldd	r27, Y+47	; 0x2f
    2136:	89 8b       	std	Y+17, r24	; 0x11
    2138:	9a 8b       	std	Y+18, r25	; 0x12
    213a:	ab 8b       	std	Y+19, r26	; 0x13
    213c:	bc 8b       	std	Y+20, r27	; 0x14
    213e:	88 a9       	ldd	r24, Y+48	; 0x30
    2140:	99 a9       	ldd	r25, Y+49	; 0x31
    2142:	aa a9       	ldd	r26, Y+50	; 0x32
    2144:	bb a9       	ldd	r27, Y+51	; 0x33
    2146:	8d 87       	std	Y+13, r24	; 0x0d
    2148:	9e 87       	std	Y+14, r25	; 0x0e
    214a:	af 87       	std	Y+15, r26	; 0x0f
    214c:	b8 8b       	std	Y+16, r27	; 0x10
    214e:	8c a9       	ldd	r24, Y+52	; 0x34
    2150:	9d a9       	ldd	r25, Y+53	; 0x35
    2152:	ae a9       	ldd	r26, Y+54	; 0x36
    2154:	bf a9       	ldd	r27, Y+55	; 0x37
    2156:	89 87       	std	Y+9, r24	; 0x09
    2158:	9a 87       	std	Y+10, r25	; 0x0a
    215a:	ab 87       	std	Y+11, r26	; 0x0b
    215c:	bc 87       	std	Y+12, r27	; 0x0c
	float w_gyr; //= getAngleRadians();
	
	
	
	//Wylicz predkosc lewego kola
	wayl=(float)((enkl* WHEEL_RADIUS_L * 2.0 * PI))/(CNTS_PER_REV * PRZEKLADNIA);
    215e:	07 2e       	mov	r0, r23
    2160:	00 0c       	add	r0, r0
    2162:	88 0b       	sbc	r24, r24
    2164:	99 0b       	sbc	r25, r25
    2166:	45 d2       	rcall	.+1162   	; 0x25f2 <__floatsisf>
    2168:	2f ed       	ldi	r18, 0xDF	; 223
    216a:	30 ee       	ldi	r19, 0xE0	; 224
    216c:	4a e7       	ldi	r20, 0x7A	; 122
    216e:	51 e4       	ldi	r21, 0x41	; 65
    2170:	7b d3       	rcall	.+1782   	; 0x2868 <__mulsf3>
    2172:	9b 01       	movw	r18, r22
    2174:	ac 01       	movw	r20, r24
    2176:	33 d1       	rcall	.+614    	; 0x23de <__addsf3>
    2178:	2a ed       	ldi	r18, 0xDA	; 218
    217a:	3f e0       	ldi	r19, 0x0F	; 15
    217c:	49 e4       	ldi	r20, 0x49	; 73
    217e:	50 e4       	ldi	r21, 0x40	; 64
    2180:	73 d3       	rcall	.+1766   	; 0x2868 <__mulsf3>
    2182:	20 e0       	ldi	r18, 0x00	; 0
    2184:	30 e0       	ldi	r19, 0x00	; 0
    2186:	46 e1       	ldi	r20, 0x16	; 22
    2188:	54 e4       	ldi	r21, 0x44	; 68
    218a:	94 d1       	rcall	.+808    	; 0x24b4 <__divsf3>
    218c:	69 83       	std	Y+1, r22	; 0x01
    218e:	7a 83       	std	Y+2, r23	; 0x02
    2190:	8b 83       	std	Y+3, r24	; 0x03
    2192:	9c 83       	std	Y+4, r25	; 0x04
	wayr=(float)((enkr* WHEEL_RADIUS_R * 2.0 * PI))/(CNTS_PER_REV * PRZEKLADNIA);
    2194:	b7 01       	movw	r22, r14
    2196:	ff 0c       	add	r15, r15
    2198:	88 0b       	sbc	r24, r24
    219a:	99 0b       	sbc	r25, r25
    219c:	2a d2       	rcall	.+1108   	; 0x25f2 <__floatsisf>
    219e:	2f ed       	ldi	r18, 0xDF	; 223
    21a0:	30 ee       	ldi	r19, 0xE0	; 224
    21a2:	4a e7       	ldi	r20, 0x7A	; 122
    21a4:	51 e4       	ldi	r21, 0x41	; 65
    21a6:	60 d3       	rcall	.+1728   	; 0x2868 <__mulsf3>
    21a8:	9b 01       	movw	r18, r22
    21aa:	ac 01       	movw	r20, r24
    21ac:	18 d1       	rcall	.+560    	; 0x23de <__addsf3>
    21ae:	2a ed       	ldi	r18, 0xDA	; 218
    21b0:	3f e0       	ldi	r19, 0x0F	; 15
    21b2:	49 e4       	ldi	r20, 0x49	; 73
    21b4:	50 e4       	ldi	r21, 0x40	; 64
    21b6:	58 d3       	rcall	.+1712   	; 0x2868 <__mulsf3>
    21b8:	20 e0       	ldi	r18, 0x00	; 0
    21ba:	30 e0       	ldi	r19, 0x00	; 0
    21bc:	46 e1       	ldi	r20, 0x16	; 22
    21be:	54 e4       	ldi	r21, 0x44	; 68
    21c0:	79 d1       	rcall	.+754    	; 0x24b4 <__divsf3>
    21c2:	6d 83       	std	Y+5, r22	; 0x05
    21c4:	7e 83       	std	Y+6, r23	; 0x06
    21c6:	8f 83       	std	Y+7, r24	; 0x07
    21c8:	98 87       	std	Y+8, r25	; 0x08
	
	//Wylicz nowy kat
	ddir = -((wayr - wayl)/SHAFT_LENGTH);
    21ca:	29 81       	ldd	r18, Y+1	; 0x01
    21cc:	3a 81       	ldd	r19, Y+2	; 0x02
    21ce:	4b 81       	ldd	r20, Y+3	; 0x03
    21d0:	5c 81       	ldd	r21, Y+4	; 0x04
    21d2:	04 d1       	rcall	.+520    	; 0x23dc <__subsf3>
    21d4:	20 e0       	ldi	r18, 0x00	; 0
    21d6:	30 e0       	ldi	r19, 0x00	; 0
    21d8:	44 eb       	ldi	r20, 0xB4	; 180
    21da:	52 e4       	ldi	r21, 0x42	; 66
    21dc:	6b d1       	rcall	.+726    	; 0x24b4 <__divsf3>
    21de:	9b 01       	movw	r18, r22
    21e0:	ac 01       	movw	r20, r24
    21e2:	2b 01       	movw	r4, r22
    21e4:	3c 01       	movw	r6, r24
    21e6:	77 fa       	bst	r7, 7
    21e8:	70 94       	com	r7
    21ea:	77 f8       	bld	r7, 7
    21ec:	70 94       	com	r7
	new_dir = par.dir + ddir;
    21ee:	c5 01       	movw	r24, r10
    21f0:	b4 01       	movw	r22, r8
    21f2:	f4 d0       	rcall	.+488    	; 0x23dc <__subsf3>
    21f4:	6b 01       	movw	r12, r22
    21f6:	7c 01       	movw	r14, r24
	
	if(ddir >= 0.0001 || ddir <= -0.0001 ){
    21f8:	27 e1       	ldi	r18, 0x17	; 23
    21fa:	37 eb       	ldi	r19, 0xB7	; 183
    21fc:	41 ed       	ldi	r20, 0xD1	; 209
    21fe:	58 e3       	ldi	r21, 0x38	; 56
    2200:	c3 01       	movw	r24, r6
    2202:	b2 01       	movw	r22, r4
    2204:	2d d3       	rcall	.+1626   	; 0x2860 <__gesf2>
    2206:	88 23       	and	r24, r24
    2208:	54 f4       	brge	.+20     	; 0x221e <get_params_enc+0x126>
    220a:	27 e1       	ldi	r18, 0x17	; 23
    220c:	37 eb       	ldi	r19, 0xB7	; 183
    220e:	41 ed       	ldi	r20, 0xD1	; 209
    2210:	58 eb       	ldi	r21, 0xB8	; 184
    2212:	c3 01       	movw	r24, r6
    2214:	b2 01       	movw	r22, r4
    2216:	47 d1       	rcall	.+654    	; 0x24a6 <__cmpsf2>
    2218:	18 16       	cp	r1, r24
    221a:	0c f4       	brge	.+2      	; 0x221e <get_params_enc+0x126>
    221c:	3d c0       	rjmp	.+122    	; 0x2298 <get_params_enc+0x1a0>
		//Wylicz chwilowy promien
		R = (wayl/ddir) + (SHAFT_LENGTH/2.0);
    221e:	a3 01       	movw	r20, r6
    2220:	92 01       	movw	r18, r4
    2222:	69 81       	ldd	r22, Y+1	; 0x01
    2224:	7a 81       	ldd	r23, Y+2	; 0x02
    2226:	8b 81       	ldd	r24, Y+3	; 0x03
    2228:	9c 81       	ldd	r25, Y+4	; 0x04
    222a:	44 d1       	rcall	.+648    	; 0x24b4 <__divsf3>
    222c:	20 e0       	ldi	r18, 0x00	; 0
    222e:	30 e0       	ldi	r19, 0x00	; 0
    2230:	44 e3       	ldi	r20, 0x34	; 52
    2232:	52 e4       	ldi	r21, 0x42	; 66
    2234:	d4 d0       	rcall	.+424    	; 0x23de <__addsf3>
    2236:	2b 01       	movw	r4, r22
    2238:	3c 01       	movw	r6, r24
		
		//Przemieszczenia w osiach x i y
		
		dy = R * (sin(new_dir) - sin(par.dir));
    223a:	c7 01       	movw	r24, r14
    223c:	b6 01       	movw	r22, r12
    223e:	77 d3       	rcall	.+1774   	; 0x292e <sin>
    2240:	69 83       	std	Y+1, r22	; 0x01
    2242:	7a 83       	std	Y+2, r23	; 0x02
    2244:	8b 83       	std	Y+3, r24	; 0x03
    2246:	9c 83       	std	Y+4, r25	; 0x04
    2248:	c5 01       	movw	r24, r10
    224a:	b4 01       	movw	r22, r8
    224c:	70 d3       	rcall	.+1760   	; 0x292e <sin>
    224e:	9b 01       	movw	r18, r22
    2250:	ac 01       	movw	r20, r24
    2252:	69 81       	ldd	r22, Y+1	; 0x01
    2254:	7a 81       	ldd	r23, Y+2	; 0x02
    2256:	8b 81       	ldd	r24, Y+3	; 0x03
    2258:	9c 81       	ldd	r25, Y+4	; 0x04
    225a:	c0 d0       	rcall	.+384    	; 0x23dc <__subsf3>
    225c:	a3 01       	movw	r20, r6
    225e:	92 01       	movw	r18, r4
    2260:	03 d3       	rcall	.+1542   	; 0x2868 <__mulsf3>
    2262:	69 83       	std	Y+1, r22	; 0x01
    2264:	7a 83       	std	Y+2, r23	; 0x02
    2266:	8b 83       	std	Y+3, r24	; 0x03
    2268:	9c 83       	std	Y+4, r25	; 0x04
		//dx = dy;
		dx = R * (cos(new_dir) - cos(par.dir));
    226a:	c7 01       	movw	r24, r14
    226c:	b6 01       	movw	r22, r12
    226e:	1f d1       	rcall	.+574    	; 0x24ae <cos>
    2270:	6d 83       	std	Y+5, r22	; 0x05
    2272:	7e 83       	std	Y+6, r23	; 0x06
    2274:	8f 83       	std	Y+7, r24	; 0x07
    2276:	98 87       	std	Y+8, r25	; 0x08
    2278:	c5 01       	movw	r24, r10
    227a:	b4 01       	movw	r22, r8
    227c:	18 d1       	rcall	.+560    	; 0x24ae <cos>
    227e:	9b 01       	movw	r18, r22
    2280:	ac 01       	movw	r20, r24
    2282:	6d 81       	ldd	r22, Y+5	; 0x05
    2284:	7e 81       	ldd	r23, Y+6	; 0x06
    2286:	8f 81       	ldd	r24, Y+7	; 0x07
    2288:	98 85       	ldd	r25, Y+8	; 0x08
    228a:	a8 d0       	rcall	.+336    	; 0x23dc <__subsf3>
    228c:	a3 01       	movw	r20, r6
    228e:	92 01       	movw	r18, r4
    2290:	eb d2       	rcall	.+1494   	; 0x2868 <__mulsf3>
    2292:	2b 01       	movw	r4, r22
    2294:	3c 01       	movw	r6, r24
    2296:	16 c0       	rjmp	.+44     	; 0x22c4 <get_params_enc+0x1cc>
	}
	else{
		//Jedzie na wprost
		dx = wayr * sin(par.dir);
    2298:	c5 01       	movw	r24, r10
    229a:	b4 01       	movw	r22, r8
    229c:	48 d3       	rcall	.+1680   	; 0x292e <sin>
    229e:	2d 81       	ldd	r18, Y+5	; 0x05
    22a0:	3e 81       	ldd	r19, Y+6	; 0x06
    22a2:	4f 81       	ldd	r20, Y+7	; 0x07
    22a4:	58 85       	ldd	r21, Y+8	; 0x08
    22a6:	e0 d2       	rcall	.+1472   	; 0x2868 <__mulsf3>
    22a8:	2b 01       	movw	r4, r22
    22aa:	3c 01       	movw	r6, r24
		dy = wayr * cos(par.dir);
    22ac:	c5 01       	movw	r24, r10
    22ae:	b4 01       	movw	r22, r8
    22b0:	fe d0       	rcall	.+508    	; 0x24ae <cos>
    22b2:	2d 81       	ldd	r18, Y+5	; 0x05
    22b4:	3e 81       	ldd	r19, Y+6	; 0x06
    22b6:	4f 81       	ldd	r20, Y+7	; 0x07
    22b8:	58 85       	ldd	r21, Y+8	; 0x08
    22ba:	d6 d2       	rcall	.+1452   	; 0x2868 <__mulsf3>
    22bc:	69 83       	std	Y+1, r22	; 0x01
    22be:	7a 83       	std	Y+2, r23	; 0x02
    22c0:	8b 83       	std	Y+3, r24	; 0x03
    22c2:	9c 83       	std	Y+4, r25	; 0x04
	}
	
	//dx = dy;
	//Odpowiednio zmien stare wartosci
	par.dir = new_dir;
	if(par.dir > PI)
    22c4:	2a ed       	ldi	r18, 0xDA	; 218
    22c6:	3f e0       	ldi	r19, 0x0F	; 15
    22c8:	49 e4       	ldi	r20, 0x49	; 73
    22ca:	50 e4       	ldi	r21, 0x40	; 64
    22cc:	c7 01       	movw	r24, r14
    22ce:	b6 01       	movw	r22, r12
    22d0:	c7 d2       	rcall	.+1422   	; 0x2860 <__gesf2>
    22d2:	18 16       	cp	r1, r24
    22d4:	4c f4       	brge	.+18     	; 0x22e8 <get_params_enc+0x1f0>
	par.dir -= 2*PI;
    22d6:	2a ed       	ldi	r18, 0xDA	; 218
    22d8:	3f e0       	ldi	r19, 0x0F	; 15
    22da:	49 ec       	ldi	r20, 0xC9	; 201
    22dc:	50 e4       	ldi	r21, 0x40	; 64
    22de:	c7 01       	movw	r24, r14
    22e0:	b6 01       	movw	r22, r12
    22e2:	7c d0       	rcall	.+248    	; 0x23dc <__subsf3>
    22e4:	6b 01       	movw	r12, r22
    22e6:	7c 01       	movw	r14, r24
	if(par.dir <= -PI)
    22e8:	2a ed       	ldi	r18, 0xDA	; 218
    22ea:	3f e0       	ldi	r19, 0x0F	; 15
    22ec:	49 e4       	ldi	r20, 0x49	; 73
    22ee:	50 ec       	ldi	r21, 0xC0	; 192
    22f0:	c7 01       	movw	r24, r14
    22f2:	b6 01       	movw	r22, r12
    22f4:	d8 d0       	rcall	.+432    	; 0x24a6 <__cmpsf2>
    22f6:	18 16       	cp	r1, r24
    22f8:	4c f0       	brlt	.+18     	; 0x230c <get_params_enc+0x214>
	par.dir += 2*PI;
    22fa:	2a ed       	ldi	r18, 0xDA	; 218
    22fc:	3f e0       	ldi	r19, 0x0F	; 15
    22fe:	49 ec       	ldi	r20, 0xC9	; 201
    2300:	50 e4       	ldi	r21, 0x40	; 64
    2302:	c7 01       	movw	r24, r14
    2304:	b6 01       	movw	r22, r12
    2306:	6b d0       	rcall	.+214    	; 0x23de <__addsf3>
    2308:	6b 01       	movw	r12, r22
    230a:	7c 01       	movw	r14, r24
	par.posx += dx;
    230c:	29 89       	ldd	r18, Y+17	; 0x11
    230e:	3a 89       	ldd	r19, Y+18	; 0x12
    2310:	4b 89       	ldd	r20, Y+19	; 0x13
    2312:	5c 89       	ldd	r21, Y+20	; 0x14
    2314:	c3 01       	movw	r24, r6
    2316:	b2 01       	movw	r22, r4
    2318:	62 d0       	rcall	.+196    	; 0x23de <__addsf3>
    231a:	2b 01       	movw	r4, r22
    231c:	3c 01       	movw	r6, r24
	par.posy =par.posy+ dy;
    231e:	2d 85       	ldd	r18, Y+13	; 0x0d
    2320:	3e 85       	ldd	r19, Y+14	; 0x0e
    2322:	4f 85       	ldd	r20, Y+15	; 0x0f
    2324:	58 89       	ldd	r21, Y+16	; 0x10
    2326:	69 81       	ldd	r22, Y+1	; 0x01
    2328:	7a 81       	ldd	r23, Y+2	; 0x02
    232a:	8b 81       	ldd	r24, Y+3	; 0x03
    232c:	9c 81       	ldd	r25, Y+4	; 0x04
    232e:	57 d0       	rcall	.+174    	; 0x23de <__addsf3>
    2330:	4b 01       	movw	r8, r22
    2332:	5c 01       	movw	r10, r24
	w_gyr = getAngleRadians();
    2334:	0e 94 a4 02 	call	0x548	; 0x548 <getAngleRadians>
    2338:	69 83       	std	Y+1, r22	; 0x01
    233a:	7a 83       	std	Y+2, r23	; 0x02
    233c:	8b 83       	std	Y+3, r24	; 0x03
    233e:	9c 83       	std	Y+4, r25	; 0x04
	
	if(w_gyr <= 0.02 && w_gyr >= -0.02){
    2340:	2a e0       	ldi	r18, 0x0A	; 10
    2342:	37 ed       	ldi	r19, 0xD7	; 215
    2344:	43 ea       	ldi	r20, 0xA3	; 163
    2346:	5c e3       	ldi	r21, 0x3C	; 60
    2348:	ae d0       	rcall	.+348    	; 0x24a6 <__cmpsf2>
    234a:	18 16       	cp	r1, r24
    234c:	a4 f0       	brlt	.+40     	; 0x2376 <get_params_enc+0x27e>
    234e:	2a e0       	ldi	r18, 0x0A	; 10
    2350:	37 ed       	ldi	r19, 0xD7	; 215
    2352:	43 ea       	ldi	r20, 0xA3	; 163
    2354:	5c eb       	ldi	r21, 0xBC	; 188
    2356:	69 81       	ldd	r22, Y+1	; 0x01
    2358:	7a 81       	ldd	r23, Y+2	; 0x02
    235a:	8b 81       	ldd	r24, Y+3	; 0x03
    235c:	9c 81       	ldd	r25, Y+4	; 0x04
    235e:	80 d2       	rcall	.+1280   	; 0x2860 <__gesf2>
    2360:	88 23       	and	r24, r24
    2362:	4c f0       	brlt	.+18     	; 0x2376 <get_params_enc+0x27e>
		par.gyr  += 0;
    2364:	20 e0       	ldi	r18, 0x00	; 0
    2366:	30 e0       	ldi	r19, 0x00	; 0
    2368:	a9 01       	movw	r20, r18
    236a:	69 85       	ldd	r22, Y+9	; 0x09
    236c:	7a 85       	ldd	r23, Y+10	; 0x0a
    236e:	8b 85       	ldd	r24, Y+11	; 0x0b
    2370:	9c 85       	ldd	r25, Y+12	; 0x0c
    2372:	35 d0       	rcall	.+106    	; 0x23de <__addsf3>
    2374:	09 c0       	rjmp	.+18     	; 0x2388 <get_params_enc+0x290>
	}
	else{
		par.gyr  += w_gyr; //razy czas? chyba 5us?
    2376:	29 81       	ldd	r18, Y+1	; 0x01
    2378:	3a 81       	ldd	r19, Y+2	; 0x02
    237a:	4b 81       	ldd	r20, Y+3	; 0x03
    237c:	5c 81       	ldd	r21, Y+4	; 0x04
    237e:	69 85       	ldd	r22, Y+9	; 0x09
    2380:	7a 85       	ldd	r23, Y+10	; 0x0a
    2382:	8b 85       	ldd	r24, Y+11	; 0x0b
    2384:	9c 85       	ldd	r25, Y+12	; 0x0c
    2386:	2b d0       	rcall	.+86     	; 0x23de <__addsf3>
	}

	
	return par;
    2388:	d8 01       	movw	r26, r16
    238a:	cd 92       	st	X+, r12
    238c:	dd 92       	st	X+, r13
    238e:	ed 92       	st	X+, r14
    2390:	fc 92       	st	X, r15
    2392:	13 97       	sbiw	r26, 0x03	; 3
    2394:	f8 01       	movw	r30, r16
    2396:	44 82       	std	Z+4, r4	; 0x04
    2398:	55 82       	std	Z+5, r5	; 0x05
    239a:	66 82       	std	Z+6, r6	; 0x06
    239c:	77 82       	std	Z+7, r7	; 0x07
    239e:	18 96       	adiw	r26, 0x08	; 8
    23a0:	8d 92       	st	X+, r8
    23a2:	9d 92       	st	X+, r9
    23a4:	ad 92       	st	X+, r10
    23a6:	bc 92       	st	X, r11
    23a8:	1b 97       	sbiw	r26, 0x0b	; 11
    23aa:	64 87       	std	Z+12, r22	; 0x0c
    23ac:	75 87       	std	Z+13, r23	; 0x0d
    23ae:	86 87       	std	Z+14, r24	; 0x0e
    23b0:	97 87       	std	Z+15, r25	; 0x0f
    23b2:	c8 01       	movw	r24, r16
    23b4:	64 96       	adiw	r28, 0x14	; 20
    23b6:	cd bf       	out	0x3d, r28	; 61
    23b8:	de bf       	out	0x3e, r29	; 62
    23ba:	df 91       	pop	r29
    23bc:	cf 91       	pop	r28
    23be:	1f 91       	pop	r17
    23c0:	0f 91       	pop	r16
    23c2:	ff 90       	pop	r15
    23c4:	ef 90       	pop	r14
    23c6:	df 90       	pop	r13
    23c8:	cf 90       	pop	r12
    23ca:	bf 90       	pop	r11
    23cc:	af 90       	pop	r10
    23ce:	9f 90       	pop	r9
    23d0:	8f 90       	pop	r8
    23d2:	7f 90       	pop	r7
    23d4:	6f 90       	pop	r6
    23d6:	5f 90       	pop	r5
    23d8:	4f 90       	pop	r4
    23da:	08 95       	ret

000023dc <__subsf3>:
    23dc:	50 58       	subi	r21, 0x80	; 128

000023de <__addsf3>:
    23de:	bb 27       	eor	r27, r27
    23e0:	aa 27       	eor	r26, r26
    23e2:	0e d0       	rcall	.+28     	; 0x2400 <__addsf3x>
    23e4:	f2 c1       	rjmp	.+996    	; 0x27ca <__fp_round>
    23e6:	bb d1       	rcall	.+886    	; 0x275e <__fp_pscA>
    23e8:	30 f0       	brcs	.+12     	; 0x23f6 <__addsf3+0x18>
    23ea:	c0 d1       	rcall	.+896    	; 0x276c <__fp_pscB>
    23ec:	20 f0       	brcs	.+8      	; 0x23f6 <__addsf3+0x18>
    23ee:	31 f4       	brne	.+12     	; 0x23fc <__addsf3+0x1e>
    23f0:	9f 3f       	cpi	r25, 0xFF	; 255
    23f2:	11 f4       	brne	.+4      	; 0x23f8 <__addsf3+0x1a>
    23f4:	1e f4       	brtc	.+6      	; 0x23fc <__addsf3+0x1e>
    23f6:	a0 c1       	rjmp	.+832    	; 0x2738 <__fp_nan>
    23f8:	0e f4       	brtc	.+2      	; 0x23fc <__addsf3+0x1e>
    23fa:	e0 95       	com	r30
    23fc:	e7 fb       	bst	r30, 7
    23fe:	96 c1       	rjmp	.+812    	; 0x272c <__fp_inf>

00002400 <__addsf3x>:
    2400:	e9 2f       	mov	r30, r25
    2402:	05 d2       	rcall	.+1034   	; 0x280e <__fp_split3>
    2404:	80 f3       	brcs	.-32     	; 0x23e6 <__addsf3+0x8>
    2406:	ba 17       	cp	r27, r26
    2408:	62 07       	cpc	r22, r18
    240a:	73 07       	cpc	r23, r19
    240c:	84 07       	cpc	r24, r20
    240e:	95 07       	cpc	r25, r21
    2410:	18 f0       	brcs	.+6      	; 0x2418 <__addsf3x+0x18>
    2412:	71 f4       	brne	.+28     	; 0x2430 <__addsf3x+0x30>
    2414:	9e f5       	brtc	.+102    	; 0x247c <__addsf3x+0x7c>
    2416:	1d c2       	rjmp	.+1082   	; 0x2852 <__fp_zero>
    2418:	0e f4       	brtc	.+2      	; 0x241c <__addsf3x+0x1c>
    241a:	e0 95       	com	r30
    241c:	0b 2e       	mov	r0, r27
    241e:	ba 2f       	mov	r27, r26
    2420:	a0 2d       	mov	r26, r0
    2422:	0b 01       	movw	r0, r22
    2424:	b9 01       	movw	r22, r18
    2426:	90 01       	movw	r18, r0
    2428:	0c 01       	movw	r0, r24
    242a:	ca 01       	movw	r24, r20
    242c:	a0 01       	movw	r20, r0
    242e:	11 24       	eor	r1, r1
    2430:	ff 27       	eor	r31, r31
    2432:	59 1b       	sub	r21, r25
    2434:	99 f0       	breq	.+38     	; 0x245c <__addsf3x+0x5c>
    2436:	59 3f       	cpi	r21, 0xF9	; 249
    2438:	50 f4       	brcc	.+20     	; 0x244e <__addsf3x+0x4e>
    243a:	50 3e       	cpi	r21, 0xE0	; 224
    243c:	68 f1       	brcs	.+90     	; 0x2498 <__addsf3x+0x98>
    243e:	1a 16       	cp	r1, r26
    2440:	f0 40       	sbci	r31, 0x00	; 0
    2442:	a2 2f       	mov	r26, r18
    2444:	23 2f       	mov	r18, r19
    2446:	34 2f       	mov	r19, r20
    2448:	44 27       	eor	r20, r20
    244a:	58 5f       	subi	r21, 0xF8	; 248
    244c:	f3 cf       	rjmp	.-26     	; 0x2434 <__addsf3x+0x34>
    244e:	46 95       	lsr	r20
    2450:	37 95       	ror	r19
    2452:	27 95       	ror	r18
    2454:	a7 95       	ror	r26
    2456:	f0 40       	sbci	r31, 0x00	; 0
    2458:	53 95       	inc	r21
    245a:	c9 f7       	brne	.-14     	; 0x244e <__addsf3x+0x4e>
    245c:	7e f4       	brtc	.+30     	; 0x247c <__addsf3x+0x7c>
    245e:	1f 16       	cp	r1, r31
    2460:	ba 0b       	sbc	r27, r26
    2462:	62 0b       	sbc	r22, r18
    2464:	73 0b       	sbc	r23, r19
    2466:	84 0b       	sbc	r24, r20
    2468:	ba f0       	brmi	.+46     	; 0x2498 <__addsf3x+0x98>
    246a:	91 50       	subi	r25, 0x01	; 1
    246c:	a1 f0       	breq	.+40     	; 0x2496 <__addsf3x+0x96>
    246e:	ff 0f       	add	r31, r31
    2470:	bb 1f       	adc	r27, r27
    2472:	66 1f       	adc	r22, r22
    2474:	77 1f       	adc	r23, r23
    2476:	88 1f       	adc	r24, r24
    2478:	c2 f7       	brpl	.-16     	; 0x246a <__addsf3x+0x6a>
    247a:	0e c0       	rjmp	.+28     	; 0x2498 <__addsf3x+0x98>
    247c:	ba 0f       	add	r27, r26
    247e:	62 1f       	adc	r22, r18
    2480:	73 1f       	adc	r23, r19
    2482:	84 1f       	adc	r24, r20
    2484:	48 f4       	brcc	.+18     	; 0x2498 <__addsf3x+0x98>
    2486:	87 95       	ror	r24
    2488:	77 95       	ror	r23
    248a:	67 95       	ror	r22
    248c:	b7 95       	ror	r27
    248e:	f7 95       	ror	r31
    2490:	9e 3f       	cpi	r25, 0xFE	; 254
    2492:	08 f0       	brcs	.+2      	; 0x2496 <__addsf3x+0x96>
    2494:	b3 cf       	rjmp	.-154    	; 0x23fc <__addsf3+0x1e>
    2496:	93 95       	inc	r25
    2498:	88 0f       	add	r24, r24
    249a:	08 f0       	brcs	.+2      	; 0x249e <__addsf3x+0x9e>
    249c:	99 27       	eor	r25, r25
    249e:	ee 0f       	add	r30, r30
    24a0:	97 95       	ror	r25
    24a2:	87 95       	ror	r24
    24a4:	08 95       	ret

000024a6 <__cmpsf2>:
    24a6:	1e d1       	rcall	.+572    	; 0x26e4 <__fp_cmp>
    24a8:	08 f4       	brcc	.+2      	; 0x24ac <__cmpsf2+0x6>
    24aa:	81 e0       	ldi	r24, 0x01	; 1
    24ac:	08 95       	ret

000024ae <cos>:
    24ae:	66 d1       	rcall	.+716    	; 0x277c <__fp_rempio2>
    24b0:	e3 95       	inc	r30
    24b2:	9c c1       	rjmp	.+824    	; 0x27ec <__fp_sinus>

000024b4 <__divsf3>:
    24b4:	0c d0       	rcall	.+24     	; 0x24ce <__divsf3x>
    24b6:	89 c1       	rjmp	.+786    	; 0x27ca <__fp_round>
    24b8:	59 d1       	rcall	.+690    	; 0x276c <__fp_pscB>
    24ba:	40 f0       	brcs	.+16     	; 0x24cc <__divsf3+0x18>
    24bc:	50 d1       	rcall	.+672    	; 0x275e <__fp_pscA>
    24be:	30 f0       	brcs	.+12     	; 0x24cc <__divsf3+0x18>
    24c0:	21 f4       	brne	.+8      	; 0x24ca <__divsf3+0x16>
    24c2:	5f 3f       	cpi	r21, 0xFF	; 255
    24c4:	19 f0       	breq	.+6      	; 0x24cc <__divsf3+0x18>
    24c6:	32 c1       	rjmp	.+612    	; 0x272c <__fp_inf>
    24c8:	51 11       	cpse	r21, r1
    24ca:	c4 c1       	rjmp	.+904    	; 0x2854 <__fp_szero>
    24cc:	35 c1       	rjmp	.+618    	; 0x2738 <__fp_nan>

000024ce <__divsf3x>:
    24ce:	9f d1       	rcall	.+830    	; 0x280e <__fp_split3>
    24d0:	98 f3       	brcs	.-26     	; 0x24b8 <__divsf3+0x4>

000024d2 <__divsf3_pse>:
    24d2:	99 23       	and	r25, r25
    24d4:	c9 f3       	breq	.-14     	; 0x24c8 <__divsf3+0x14>
    24d6:	55 23       	and	r21, r21
    24d8:	b1 f3       	breq	.-20     	; 0x24c6 <__divsf3+0x12>
    24da:	95 1b       	sub	r25, r21
    24dc:	55 0b       	sbc	r21, r21
    24de:	bb 27       	eor	r27, r27
    24e0:	aa 27       	eor	r26, r26
    24e2:	62 17       	cp	r22, r18
    24e4:	73 07       	cpc	r23, r19
    24e6:	84 07       	cpc	r24, r20
    24e8:	38 f0       	brcs	.+14     	; 0x24f8 <__divsf3_pse+0x26>
    24ea:	9f 5f       	subi	r25, 0xFF	; 255
    24ec:	5f 4f       	sbci	r21, 0xFF	; 255
    24ee:	22 0f       	add	r18, r18
    24f0:	33 1f       	adc	r19, r19
    24f2:	44 1f       	adc	r20, r20
    24f4:	aa 1f       	adc	r26, r26
    24f6:	a9 f3       	breq	.-22     	; 0x24e2 <__divsf3_pse+0x10>
    24f8:	33 d0       	rcall	.+102    	; 0x2560 <__divsf3_pse+0x8e>
    24fa:	0e 2e       	mov	r0, r30
    24fc:	3a f0       	brmi	.+14     	; 0x250c <__divsf3_pse+0x3a>
    24fe:	e0 e8       	ldi	r30, 0x80	; 128
    2500:	30 d0       	rcall	.+96     	; 0x2562 <__divsf3_pse+0x90>
    2502:	91 50       	subi	r25, 0x01	; 1
    2504:	50 40       	sbci	r21, 0x00	; 0
    2506:	e6 95       	lsr	r30
    2508:	00 1c       	adc	r0, r0
    250a:	ca f7       	brpl	.-14     	; 0x24fe <__divsf3_pse+0x2c>
    250c:	29 d0       	rcall	.+82     	; 0x2560 <__divsf3_pse+0x8e>
    250e:	fe 2f       	mov	r31, r30
    2510:	27 d0       	rcall	.+78     	; 0x2560 <__divsf3_pse+0x8e>
    2512:	66 0f       	add	r22, r22
    2514:	77 1f       	adc	r23, r23
    2516:	88 1f       	adc	r24, r24
    2518:	bb 1f       	adc	r27, r27
    251a:	26 17       	cp	r18, r22
    251c:	37 07       	cpc	r19, r23
    251e:	48 07       	cpc	r20, r24
    2520:	ab 07       	cpc	r26, r27
    2522:	b0 e8       	ldi	r27, 0x80	; 128
    2524:	09 f0       	breq	.+2      	; 0x2528 <__divsf3_pse+0x56>
    2526:	bb 0b       	sbc	r27, r27
    2528:	80 2d       	mov	r24, r0
    252a:	bf 01       	movw	r22, r30
    252c:	ff 27       	eor	r31, r31
    252e:	93 58       	subi	r25, 0x83	; 131
    2530:	5f 4f       	sbci	r21, 0xFF	; 255
    2532:	2a f0       	brmi	.+10     	; 0x253e <__divsf3_pse+0x6c>
    2534:	9e 3f       	cpi	r25, 0xFE	; 254
    2536:	51 05       	cpc	r21, r1
    2538:	68 f0       	brcs	.+26     	; 0x2554 <__divsf3_pse+0x82>
    253a:	f8 c0       	rjmp	.+496    	; 0x272c <__fp_inf>
    253c:	8b c1       	rjmp	.+790    	; 0x2854 <__fp_szero>
    253e:	5f 3f       	cpi	r21, 0xFF	; 255
    2540:	ec f3       	brlt	.-6      	; 0x253c <__divsf3_pse+0x6a>
    2542:	98 3e       	cpi	r25, 0xE8	; 232
    2544:	dc f3       	brlt	.-10     	; 0x253c <__divsf3_pse+0x6a>
    2546:	86 95       	lsr	r24
    2548:	77 95       	ror	r23
    254a:	67 95       	ror	r22
    254c:	b7 95       	ror	r27
    254e:	f7 95       	ror	r31
    2550:	9f 5f       	subi	r25, 0xFF	; 255
    2552:	c9 f7       	brne	.-14     	; 0x2546 <__divsf3_pse+0x74>
    2554:	88 0f       	add	r24, r24
    2556:	91 1d       	adc	r25, r1
    2558:	96 95       	lsr	r25
    255a:	87 95       	ror	r24
    255c:	97 f9       	bld	r25, 7
    255e:	08 95       	ret
    2560:	e1 e0       	ldi	r30, 0x01	; 1
    2562:	66 0f       	add	r22, r22
    2564:	77 1f       	adc	r23, r23
    2566:	88 1f       	adc	r24, r24
    2568:	bb 1f       	adc	r27, r27
    256a:	62 17       	cp	r22, r18
    256c:	73 07       	cpc	r23, r19
    256e:	84 07       	cpc	r24, r20
    2570:	ba 07       	cpc	r27, r26
    2572:	20 f0       	brcs	.+8      	; 0x257c <__divsf3_pse+0xaa>
    2574:	62 1b       	sub	r22, r18
    2576:	73 0b       	sbc	r23, r19
    2578:	84 0b       	sbc	r24, r20
    257a:	ba 0b       	sbc	r27, r26
    257c:	ee 1f       	adc	r30, r30
    257e:	88 f7       	brcc	.-30     	; 0x2562 <__divsf3_pse+0x90>
    2580:	e0 95       	com	r30
    2582:	08 95       	ret

00002584 <__fixsfsi>:
    2584:	04 d0       	rcall	.+8      	; 0x258e <__fixunssfsi>
    2586:	68 94       	set
    2588:	b1 11       	cpse	r27, r1
    258a:	64 c1       	rjmp	.+712    	; 0x2854 <__fp_szero>
    258c:	08 95       	ret

0000258e <__fixunssfsi>:
    258e:	47 d1       	rcall	.+654    	; 0x281e <__fp_splitA>
    2590:	88 f0       	brcs	.+34     	; 0x25b4 <__fixunssfsi+0x26>
    2592:	9f 57       	subi	r25, 0x7F	; 127
    2594:	90 f0       	brcs	.+36     	; 0x25ba <__fixunssfsi+0x2c>
    2596:	b9 2f       	mov	r27, r25
    2598:	99 27       	eor	r25, r25
    259a:	b7 51       	subi	r27, 0x17	; 23
    259c:	a0 f0       	brcs	.+40     	; 0x25c6 <__fixunssfsi+0x38>
    259e:	d1 f0       	breq	.+52     	; 0x25d4 <__fixunssfsi+0x46>
    25a0:	66 0f       	add	r22, r22
    25a2:	77 1f       	adc	r23, r23
    25a4:	88 1f       	adc	r24, r24
    25a6:	99 1f       	adc	r25, r25
    25a8:	1a f0       	brmi	.+6      	; 0x25b0 <__fixunssfsi+0x22>
    25aa:	ba 95       	dec	r27
    25ac:	c9 f7       	brne	.-14     	; 0x25a0 <__fixunssfsi+0x12>
    25ae:	12 c0       	rjmp	.+36     	; 0x25d4 <__fixunssfsi+0x46>
    25b0:	b1 30       	cpi	r27, 0x01	; 1
    25b2:	81 f0       	breq	.+32     	; 0x25d4 <__fixunssfsi+0x46>
    25b4:	4e d1       	rcall	.+668    	; 0x2852 <__fp_zero>
    25b6:	b1 e0       	ldi	r27, 0x01	; 1
    25b8:	08 95       	ret
    25ba:	4b c1       	rjmp	.+662    	; 0x2852 <__fp_zero>
    25bc:	67 2f       	mov	r22, r23
    25be:	78 2f       	mov	r23, r24
    25c0:	88 27       	eor	r24, r24
    25c2:	b8 5f       	subi	r27, 0xF8	; 248
    25c4:	39 f0       	breq	.+14     	; 0x25d4 <__fixunssfsi+0x46>
    25c6:	b9 3f       	cpi	r27, 0xF9	; 249
    25c8:	cc f3       	brlt	.-14     	; 0x25bc <__fixunssfsi+0x2e>
    25ca:	86 95       	lsr	r24
    25cc:	77 95       	ror	r23
    25ce:	67 95       	ror	r22
    25d0:	b3 95       	inc	r27
    25d2:	d9 f7       	brne	.-10     	; 0x25ca <__fixunssfsi+0x3c>
    25d4:	3e f4       	brtc	.+14     	; 0x25e4 <__fixunssfsi+0x56>
    25d6:	90 95       	com	r25
    25d8:	80 95       	com	r24
    25da:	70 95       	com	r23
    25dc:	61 95       	neg	r22
    25de:	7f 4f       	sbci	r23, 0xFF	; 255
    25e0:	8f 4f       	sbci	r24, 0xFF	; 255
    25e2:	9f 4f       	sbci	r25, 0xFF	; 255
    25e4:	08 95       	ret

000025e6 <__floatdisf>:
    25e6:	97 fb       	bst	r25, 7
    25e8:	0e f4       	brtc	.+2      	; 0x25ec <__floatdisf+0x6>
    25ea:	a9 d0       	rcall	.+338    	; 0x273e <__fp_negdi>
    25ec:	3e c0       	rjmp	.+124    	; 0x266a <__fp_di2sf>

000025ee <__floatunsisf>:
    25ee:	e8 94       	clt
    25f0:	09 c0       	rjmp	.+18     	; 0x2604 <__floatsisf+0x12>

000025f2 <__floatsisf>:
    25f2:	97 fb       	bst	r25, 7
    25f4:	3e f4       	brtc	.+14     	; 0x2604 <__floatsisf+0x12>
    25f6:	90 95       	com	r25
    25f8:	80 95       	com	r24
    25fa:	70 95       	com	r23
    25fc:	61 95       	neg	r22
    25fe:	7f 4f       	sbci	r23, 0xFF	; 255
    2600:	8f 4f       	sbci	r24, 0xFF	; 255
    2602:	9f 4f       	sbci	r25, 0xFF	; 255
    2604:	99 23       	and	r25, r25
    2606:	a9 f0       	breq	.+42     	; 0x2632 <__floatsisf+0x40>
    2608:	f9 2f       	mov	r31, r25
    260a:	96 e9       	ldi	r25, 0x96	; 150
    260c:	bb 27       	eor	r27, r27
    260e:	93 95       	inc	r25
    2610:	f6 95       	lsr	r31
    2612:	87 95       	ror	r24
    2614:	77 95       	ror	r23
    2616:	67 95       	ror	r22
    2618:	b7 95       	ror	r27
    261a:	f1 11       	cpse	r31, r1
    261c:	f8 cf       	rjmp	.-16     	; 0x260e <__floatsisf+0x1c>
    261e:	fa f4       	brpl	.+62     	; 0x265e <__floatsisf+0x6c>
    2620:	bb 0f       	add	r27, r27
    2622:	11 f4       	brne	.+4      	; 0x2628 <__floatsisf+0x36>
    2624:	60 ff       	sbrs	r22, 0
    2626:	1b c0       	rjmp	.+54     	; 0x265e <__floatsisf+0x6c>
    2628:	6f 5f       	subi	r22, 0xFF	; 255
    262a:	7f 4f       	sbci	r23, 0xFF	; 255
    262c:	8f 4f       	sbci	r24, 0xFF	; 255
    262e:	9f 4f       	sbci	r25, 0xFF	; 255
    2630:	16 c0       	rjmp	.+44     	; 0x265e <__floatsisf+0x6c>
    2632:	88 23       	and	r24, r24
    2634:	11 f0       	breq	.+4      	; 0x263a <__floatsisf+0x48>
    2636:	96 e9       	ldi	r25, 0x96	; 150
    2638:	11 c0       	rjmp	.+34     	; 0x265c <__floatsisf+0x6a>
    263a:	77 23       	and	r23, r23
    263c:	21 f0       	breq	.+8      	; 0x2646 <__floatsisf+0x54>
    263e:	9e e8       	ldi	r25, 0x8E	; 142
    2640:	87 2f       	mov	r24, r23
    2642:	76 2f       	mov	r23, r22
    2644:	05 c0       	rjmp	.+10     	; 0x2650 <__floatsisf+0x5e>
    2646:	66 23       	and	r22, r22
    2648:	71 f0       	breq	.+28     	; 0x2666 <__floatsisf+0x74>
    264a:	96 e8       	ldi	r25, 0x86	; 134
    264c:	86 2f       	mov	r24, r22
    264e:	70 e0       	ldi	r23, 0x00	; 0
    2650:	60 e0       	ldi	r22, 0x00	; 0
    2652:	2a f0       	brmi	.+10     	; 0x265e <__floatsisf+0x6c>
    2654:	9a 95       	dec	r25
    2656:	66 0f       	add	r22, r22
    2658:	77 1f       	adc	r23, r23
    265a:	88 1f       	adc	r24, r24
    265c:	da f7       	brpl	.-10     	; 0x2654 <__floatsisf+0x62>
    265e:	88 0f       	add	r24, r24
    2660:	96 95       	lsr	r25
    2662:	87 95       	ror	r24
    2664:	97 f9       	bld	r25, 7
    2666:	08 95       	ret

00002668 <__floatundisf>:
    2668:	e8 94       	clt

0000266a <__fp_di2sf>:
    266a:	f9 2f       	mov	r31, r25
    266c:	96 eb       	ldi	r25, 0xB6	; 182
    266e:	ff 23       	and	r31, r31
    2670:	81 f0       	breq	.+32     	; 0x2692 <__fp_di2sf+0x28>
    2672:	12 16       	cp	r1, r18
    2674:	13 06       	cpc	r1, r19
    2676:	14 06       	cpc	r1, r20
    2678:	44 0b       	sbc	r20, r20
    267a:	93 95       	inc	r25
    267c:	f6 95       	lsr	r31
    267e:	87 95       	ror	r24
    2680:	77 95       	ror	r23
    2682:	67 95       	ror	r22
    2684:	57 95       	ror	r21
    2686:	40 40       	sbci	r20, 0x00	; 0
    2688:	ff 23       	and	r31, r31
    268a:	b9 f7       	brne	.-18     	; 0x267a <__fp_di2sf+0x10>
    268c:	1b c0       	rjmp	.+54     	; 0x26c4 <__fp_di2sf+0x5a>
    268e:	99 27       	eor	r25, r25
    2690:	08 95       	ret
    2692:	88 23       	and	r24, r24
    2694:	51 f4       	brne	.+20     	; 0x26aa <__fp_di2sf+0x40>
    2696:	98 50       	subi	r25, 0x08	; 8
    2698:	d2 f7       	brpl	.-12     	; 0x268e <__fp_di2sf+0x24>
    269a:	87 2b       	or	r24, r23
    269c:	76 2f       	mov	r23, r22
    269e:	65 2f       	mov	r22, r21
    26a0:	54 2f       	mov	r21, r20
    26a2:	43 2f       	mov	r20, r19
    26a4:	32 2f       	mov	r19, r18
    26a6:	20 e0       	ldi	r18, 0x00	; 0
    26a8:	b1 f3       	breq	.-20     	; 0x2696 <__fp_di2sf+0x2c>
    26aa:	12 16       	cp	r1, r18
    26ac:	13 06       	cpc	r1, r19
    26ae:	14 06       	cpc	r1, r20
    26b0:	44 0b       	sbc	r20, r20
    26b2:	88 23       	and	r24, r24
    26b4:	3a f0       	brmi	.+14     	; 0x26c4 <__fp_di2sf+0x5a>
    26b6:	9a 95       	dec	r25
    26b8:	44 0f       	add	r20, r20
    26ba:	55 1f       	adc	r21, r21
    26bc:	66 1f       	adc	r22, r22
    26be:	77 1f       	adc	r23, r23
    26c0:	88 1f       	adc	r24, r24
    26c2:	ca f7       	brpl	.-14     	; 0x26b6 <__fp_di2sf+0x4c>
    26c4:	55 23       	and	r21, r21
    26c6:	4a f4       	brpl	.+18     	; 0x26da <__fp_di2sf+0x70>
    26c8:	44 0f       	add	r20, r20
    26ca:	55 1f       	adc	r21, r21
    26cc:	11 f4       	brne	.+4      	; 0x26d2 <__fp_di2sf+0x68>
    26ce:	60 ff       	sbrs	r22, 0
    26d0:	04 c0       	rjmp	.+8      	; 0x26da <__fp_di2sf+0x70>
    26d2:	6f 5f       	subi	r22, 0xFF	; 255
    26d4:	7f 4f       	sbci	r23, 0xFF	; 255
    26d6:	8f 4f       	sbci	r24, 0xFF	; 255
    26d8:	9f 4f       	sbci	r25, 0xFF	; 255
    26da:	88 0f       	add	r24, r24
    26dc:	96 95       	lsr	r25
    26de:	87 95       	ror	r24
    26e0:	97 f9       	bld	r25, 7
    26e2:	08 95       	ret

000026e4 <__fp_cmp>:
    26e4:	99 0f       	add	r25, r25
    26e6:	00 08       	sbc	r0, r0
    26e8:	55 0f       	add	r21, r21
    26ea:	aa 0b       	sbc	r26, r26
    26ec:	e0 e8       	ldi	r30, 0x80	; 128
    26ee:	fe ef       	ldi	r31, 0xFE	; 254
    26f0:	16 16       	cp	r1, r22
    26f2:	17 06       	cpc	r1, r23
    26f4:	e8 07       	cpc	r30, r24
    26f6:	f9 07       	cpc	r31, r25
    26f8:	c0 f0       	brcs	.+48     	; 0x272a <__fp_cmp+0x46>
    26fa:	12 16       	cp	r1, r18
    26fc:	13 06       	cpc	r1, r19
    26fe:	e4 07       	cpc	r30, r20
    2700:	f5 07       	cpc	r31, r21
    2702:	98 f0       	brcs	.+38     	; 0x272a <__fp_cmp+0x46>
    2704:	62 1b       	sub	r22, r18
    2706:	73 0b       	sbc	r23, r19
    2708:	84 0b       	sbc	r24, r20
    270a:	95 0b       	sbc	r25, r21
    270c:	39 f4       	brne	.+14     	; 0x271c <__fp_cmp+0x38>
    270e:	0a 26       	eor	r0, r26
    2710:	61 f0       	breq	.+24     	; 0x272a <__fp_cmp+0x46>
    2712:	23 2b       	or	r18, r19
    2714:	24 2b       	or	r18, r20
    2716:	25 2b       	or	r18, r21
    2718:	21 f4       	brne	.+8      	; 0x2722 <__fp_cmp+0x3e>
    271a:	08 95       	ret
    271c:	0a 26       	eor	r0, r26
    271e:	09 f4       	brne	.+2      	; 0x2722 <__fp_cmp+0x3e>
    2720:	a1 40       	sbci	r26, 0x01	; 1
    2722:	a6 95       	lsr	r26
    2724:	8f ef       	ldi	r24, 0xFF	; 255
    2726:	81 1d       	adc	r24, r1
    2728:	81 1d       	adc	r24, r1
    272a:	08 95       	ret

0000272c <__fp_inf>:
    272c:	97 f9       	bld	r25, 7
    272e:	9f 67       	ori	r25, 0x7F	; 127
    2730:	80 e8       	ldi	r24, 0x80	; 128
    2732:	70 e0       	ldi	r23, 0x00	; 0
    2734:	60 e0       	ldi	r22, 0x00	; 0
    2736:	08 95       	ret

00002738 <__fp_nan>:
    2738:	9f ef       	ldi	r25, 0xFF	; 255
    273a:	80 ec       	ldi	r24, 0xC0	; 192
    273c:	08 95       	ret

0000273e <__fp_negdi>:
    273e:	90 95       	com	r25
    2740:	80 95       	com	r24
    2742:	70 95       	com	r23
    2744:	60 95       	com	r22
    2746:	50 95       	com	r21
    2748:	40 95       	com	r20
    274a:	30 95       	com	r19
    274c:	21 95       	neg	r18
    274e:	3f 4f       	sbci	r19, 0xFF	; 255
    2750:	4f 4f       	sbci	r20, 0xFF	; 255
    2752:	5f 4f       	sbci	r21, 0xFF	; 255
    2754:	6f 4f       	sbci	r22, 0xFF	; 255
    2756:	7f 4f       	sbci	r23, 0xFF	; 255
    2758:	8f 4f       	sbci	r24, 0xFF	; 255
    275a:	9f 4f       	sbci	r25, 0xFF	; 255
    275c:	08 95       	ret

0000275e <__fp_pscA>:
    275e:	00 24       	eor	r0, r0
    2760:	0a 94       	dec	r0
    2762:	16 16       	cp	r1, r22
    2764:	17 06       	cpc	r1, r23
    2766:	18 06       	cpc	r1, r24
    2768:	09 06       	cpc	r0, r25
    276a:	08 95       	ret

0000276c <__fp_pscB>:
    276c:	00 24       	eor	r0, r0
    276e:	0a 94       	dec	r0
    2770:	12 16       	cp	r1, r18
    2772:	13 06       	cpc	r1, r19
    2774:	14 06       	cpc	r1, r20
    2776:	05 06       	cpc	r0, r21
    2778:	08 95       	ret
    277a:	de cf       	rjmp	.-68     	; 0x2738 <__fp_nan>

0000277c <__fp_rempio2>:
    277c:	50 d0       	rcall	.+160    	; 0x281e <__fp_splitA>
    277e:	e8 f3       	brcs	.-6      	; 0x277a <__fp_pscB+0xe>
    2780:	e8 94       	clt
    2782:	e0 e0       	ldi	r30, 0x00	; 0
    2784:	bb 27       	eor	r27, r27
    2786:	9f 57       	subi	r25, 0x7F	; 127
    2788:	f0 f0       	brcs	.+60     	; 0x27c6 <__fp_rempio2+0x4a>
    278a:	2a ed       	ldi	r18, 0xDA	; 218
    278c:	3f e0       	ldi	r19, 0x0F	; 15
    278e:	49 ec       	ldi	r20, 0xC9	; 201
    2790:	06 c0       	rjmp	.+12     	; 0x279e <__fp_rempio2+0x22>
    2792:	ee 0f       	add	r30, r30
    2794:	bb 0f       	add	r27, r27
    2796:	66 1f       	adc	r22, r22
    2798:	77 1f       	adc	r23, r23
    279a:	88 1f       	adc	r24, r24
    279c:	28 f0       	brcs	.+10     	; 0x27a8 <__fp_rempio2+0x2c>
    279e:	b2 3a       	cpi	r27, 0xA2	; 162
    27a0:	62 07       	cpc	r22, r18
    27a2:	73 07       	cpc	r23, r19
    27a4:	84 07       	cpc	r24, r20
    27a6:	28 f0       	brcs	.+10     	; 0x27b2 <__fp_rempio2+0x36>
    27a8:	b2 5a       	subi	r27, 0xA2	; 162
    27aa:	62 0b       	sbc	r22, r18
    27ac:	73 0b       	sbc	r23, r19
    27ae:	84 0b       	sbc	r24, r20
    27b0:	e3 95       	inc	r30
    27b2:	9a 95       	dec	r25
    27b4:	72 f7       	brpl	.-36     	; 0x2792 <__fp_rempio2+0x16>
    27b6:	80 38       	cpi	r24, 0x80	; 128
    27b8:	30 f4       	brcc	.+12     	; 0x27c6 <__fp_rempio2+0x4a>
    27ba:	9a 95       	dec	r25
    27bc:	bb 0f       	add	r27, r27
    27be:	66 1f       	adc	r22, r22
    27c0:	77 1f       	adc	r23, r23
    27c2:	88 1f       	adc	r24, r24
    27c4:	d2 f7       	brpl	.-12     	; 0x27ba <__fp_rempio2+0x3e>
    27c6:	90 48       	sbci	r25, 0x80	; 128
    27c8:	ba c0       	rjmp	.+372    	; 0x293e <__fp_mpack_finite>

000027ca <__fp_round>:
    27ca:	09 2e       	mov	r0, r25
    27cc:	03 94       	inc	r0
    27ce:	00 0c       	add	r0, r0
    27d0:	11 f4       	brne	.+4      	; 0x27d6 <__fp_round+0xc>
    27d2:	88 23       	and	r24, r24
    27d4:	52 f0       	brmi	.+20     	; 0x27ea <__fp_round+0x20>
    27d6:	bb 0f       	add	r27, r27
    27d8:	40 f4       	brcc	.+16     	; 0x27ea <__fp_round+0x20>
    27da:	bf 2b       	or	r27, r31
    27dc:	11 f4       	brne	.+4      	; 0x27e2 <__fp_round+0x18>
    27de:	60 ff       	sbrs	r22, 0
    27e0:	04 c0       	rjmp	.+8      	; 0x27ea <__fp_round+0x20>
    27e2:	6f 5f       	subi	r22, 0xFF	; 255
    27e4:	7f 4f       	sbci	r23, 0xFF	; 255
    27e6:	8f 4f       	sbci	r24, 0xFF	; 255
    27e8:	9f 4f       	sbci	r25, 0xFF	; 255
    27ea:	08 95       	ret

000027ec <__fp_sinus>:
    27ec:	ef 93       	push	r30
    27ee:	e0 ff       	sbrs	r30, 0
    27f0:	06 c0       	rjmp	.+12     	; 0x27fe <__fp_sinus+0x12>
    27f2:	a2 ea       	ldi	r26, 0xA2	; 162
    27f4:	2a ed       	ldi	r18, 0xDA	; 218
    27f6:	3f e0       	ldi	r19, 0x0F	; 15
    27f8:	49 ec       	ldi	r20, 0xC9	; 201
    27fa:	5f eb       	ldi	r21, 0xBF	; 191
    27fc:	01 de       	rcall	.-1022   	; 0x2400 <__addsf3x>
    27fe:	e5 df       	rcall	.-54     	; 0x27ca <__fp_round>
    2800:	0f 90       	pop	r0
    2802:	03 94       	inc	r0
    2804:	01 fc       	sbrc	r0, 1
    2806:	90 58       	subi	r25, 0x80	; 128
    2808:	ec ef       	ldi	r30, 0xFC	; 252
    280a:	f1 e0       	ldi	r31, 0x01	; 1
    280c:	a4 c0       	rjmp	.+328    	; 0x2956 <__fp_powsodd>

0000280e <__fp_split3>:
    280e:	57 fd       	sbrc	r21, 7
    2810:	90 58       	subi	r25, 0x80	; 128
    2812:	44 0f       	add	r20, r20
    2814:	55 1f       	adc	r21, r21
    2816:	59 f0       	breq	.+22     	; 0x282e <__fp_splitA+0x10>
    2818:	5f 3f       	cpi	r21, 0xFF	; 255
    281a:	71 f0       	breq	.+28     	; 0x2838 <__fp_splitA+0x1a>
    281c:	47 95       	ror	r20

0000281e <__fp_splitA>:
    281e:	88 0f       	add	r24, r24
    2820:	97 fb       	bst	r25, 7
    2822:	99 1f       	adc	r25, r25
    2824:	61 f0       	breq	.+24     	; 0x283e <__fp_splitA+0x20>
    2826:	9f 3f       	cpi	r25, 0xFF	; 255
    2828:	79 f0       	breq	.+30     	; 0x2848 <__fp_splitA+0x2a>
    282a:	87 95       	ror	r24
    282c:	08 95       	ret
    282e:	12 16       	cp	r1, r18
    2830:	13 06       	cpc	r1, r19
    2832:	14 06       	cpc	r1, r20
    2834:	55 1f       	adc	r21, r21
    2836:	f2 cf       	rjmp	.-28     	; 0x281c <__fp_split3+0xe>
    2838:	46 95       	lsr	r20
    283a:	f1 df       	rcall	.-30     	; 0x281e <__fp_splitA>
    283c:	08 c0       	rjmp	.+16     	; 0x284e <__fp_splitA+0x30>
    283e:	16 16       	cp	r1, r22
    2840:	17 06       	cpc	r1, r23
    2842:	18 06       	cpc	r1, r24
    2844:	99 1f       	adc	r25, r25
    2846:	f1 cf       	rjmp	.-30     	; 0x282a <__fp_splitA+0xc>
    2848:	86 95       	lsr	r24
    284a:	71 05       	cpc	r23, r1
    284c:	61 05       	cpc	r22, r1
    284e:	08 94       	sec
    2850:	08 95       	ret

00002852 <__fp_zero>:
    2852:	e8 94       	clt

00002854 <__fp_szero>:
    2854:	bb 27       	eor	r27, r27
    2856:	66 27       	eor	r22, r22
    2858:	77 27       	eor	r23, r23
    285a:	cb 01       	movw	r24, r22
    285c:	97 f9       	bld	r25, 7
    285e:	08 95       	ret

00002860 <__gesf2>:
    2860:	41 df       	rcall	.-382    	; 0x26e4 <__fp_cmp>
    2862:	08 f4       	brcc	.+2      	; 0x2866 <__gesf2+0x6>
    2864:	8f ef       	ldi	r24, 0xFF	; 255
    2866:	08 95       	ret

00002868 <__mulsf3>:
    2868:	0b d0       	rcall	.+22     	; 0x2880 <__mulsf3x>
    286a:	af cf       	rjmp	.-162    	; 0x27ca <__fp_round>
    286c:	78 df       	rcall	.-272    	; 0x275e <__fp_pscA>
    286e:	28 f0       	brcs	.+10     	; 0x287a <__mulsf3+0x12>
    2870:	7d df       	rcall	.-262    	; 0x276c <__fp_pscB>
    2872:	18 f0       	brcs	.+6      	; 0x287a <__mulsf3+0x12>
    2874:	95 23       	and	r25, r21
    2876:	09 f0       	breq	.+2      	; 0x287a <__mulsf3+0x12>
    2878:	59 cf       	rjmp	.-334    	; 0x272c <__fp_inf>
    287a:	5e cf       	rjmp	.-324    	; 0x2738 <__fp_nan>
    287c:	11 24       	eor	r1, r1
    287e:	ea cf       	rjmp	.-44     	; 0x2854 <__fp_szero>

00002880 <__mulsf3x>:
    2880:	c6 df       	rcall	.-116    	; 0x280e <__fp_split3>
    2882:	a0 f3       	brcs	.-24     	; 0x286c <__mulsf3+0x4>

00002884 <__mulsf3_pse>:
    2884:	95 9f       	mul	r25, r21
    2886:	d1 f3       	breq	.-12     	; 0x287c <__mulsf3+0x14>
    2888:	95 0f       	add	r25, r21
    288a:	50 e0       	ldi	r21, 0x00	; 0
    288c:	55 1f       	adc	r21, r21
    288e:	62 9f       	mul	r22, r18
    2890:	f0 01       	movw	r30, r0
    2892:	72 9f       	mul	r23, r18
    2894:	bb 27       	eor	r27, r27
    2896:	f0 0d       	add	r31, r0
    2898:	b1 1d       	adc	r27, r1
    289a:	63 9f       	mul	r22, r19
    289c:	aa 27       	eor	r26, r26
    289e:	f0 0d       	add	r31, r0
    28a0:	b1 1d       	adc	r27, r1
    28a2:	aa 1f       	adc	r26, r26
    28a4:	64 9f       	mul	r22, r20
    28a6:	66 27       	eor	r22, r22
    28a8:	b0 0d       	add	r27, r0
    28aa:	a1 1d       	adc	r26, r1
    28ac:	66 1f       	adc	r22, r22
    28ae:	82 9f       	mul	r24, r18
    28b0:	22 27       	eor	r18, r18
    28b2:	b0 0d       	add	r27, r0
    28b4:	a1 1d       	adc	r26, r1
    28b6:	62 1f       	adc	r22, r18
    28b8:	73 9f       	mul	r23, r19
    28ba:	b0 0d       	add	r27, r0
    28bc:	a1 1d       	adc	r26, r1
    28be:	62 1f       	adc	r22, r18
    28c0:	83 9f       	mul	r24, r19
    28c2:	a0 0d       	add	r26, r0
    28c4:	61 1d       	adc	r22, r1
    28c6:	22 1f       	adc	r18, r18
    28c8:	74 9f       	mul	r23, r20
    28ca:	33 27       	eor	r19, r19
    28cc:	a0 0d       	add	r26, r0
    28ce:	61 1d       	adc	r22, r1
    28d0:	23 1f       	adc	r18, r19
    28d2:	84 9f       	mul	r24, r20
    28d4:	60 0d       	add	r22, r0
    28d6:	21 1d       	adc	r18, r1
    28d8:	82 2f       	mov	r24, r18
    28da:	76 2f       	mov	r23, r22
    28dc:	6a 2f       	mov	r22, r26
    28de:	11 24       	eor	r1, r1
    28e0:	9f 57       	subi	r25, 0x7F	; 127
    28e2:	50 40       	sbci	r21, 0x00	; 0
    28e4:	8a f0       	brmi	.+34     	; 0x2908 <__mulsf3_pse+0x84>
    28e6:	e1 f0       	breq	.+56     	; 0x2920 <__mulsf3_pse+0x9c>
    28e8:	88 23       	and	r24, r24
    28ea:	4a f0       	brmi	.+18     	; 0x28fe <__mulsf3_pse+0x7a>
    28ec:	ee 0f       	add	r30, r30
    28ee:	ff 1f       	adc	r31, r31
    28f0:	bb 1f       	adc	r27, r27
    28f2:	66 1f       	adc	r22, r22
    28f4:	77 1f       	adc	r23, r23
    28f6:	88 1f       	adc	r24, r24
    28f8:	91 50       	subi	r25, 0x01	; 1
    28fa:	50 40       	sbci	r21, 0x00	; 0
    28fc:	a9 f7       	brne	.-22     	; 0x28e8 <__mulsf3_pse+0x64>
    28fe:	9e 3f       	cpi	r25, 0xFE	; 254
    2900:	51 05       	cpc	r21, r1
    2902:	70 f0       	brcs	.+28     	; 0x2920 <__mulsf3_pse+0x9c>
    2904:	13 cf       	rjmp	.-474    	; 0x272c <__fp_inf>
    2906:	a6 cf       	rjmp	.-180    	; 0x2854 <__fp_szero>
    2908:	5f 3f       	cpi	r21, 0xFF	; 255
    290a:	ec f3       	brlt	.-6      	; 0x2906 <__mulsf3_pse+0x82>
    290c:	98 3e       	cpi	r25, 0xE8	; 232
    290e:	dc f3       	brlt	.-10     	; 0x2906 <__mulsf3_pse+0x82>
    2910:	86 95       	lsr	r24
    2912:	77 95       	ror	r23
    2914:	67 95       	ror	r22
    2916:	b7 95       	ror	r27
    2918:	f7 95       	ror	r31
    291a:	e7 95       	ror	r30
    291c:	9f 5f       	subi	r25, 0xFF	; 255
    291e:	c1 f7       	brne	.-16     	; 0x2910 <__mulsf3_pse+0x8c>
    2920:	fe 2b       	or	r31, r30
    2922:	88 0f       	add	r24, r24
    2924:	91 1d       	adc	r25, r1
    2926:	96 95       	lsr	r25
    2928:	87 95       	ror	r24
    292a:	97 f9       	bld	r25, 7
    292c:	08 95       	ret

0000292e <sin>:
    292e:	9f 93       	push	r25
    2930:	25 df       	rcall	.-438    	; 0x277c <__fp_rempio2>
    2932:	0f 90       	pop	r0
    2934:	07 fc       	sbrc	r0, 7
    2936:	ee 5f       	subi	r30, 0xFE	; 254
    2938:	59 cf       	rjmp	.-334    	; 0x27ec <__fp_sinus>

0000293a <__fp_mpack>:
    293a:	9f 3f       	cpi	r25, 0xFF	; 255
    293c:	31 f0       	breq	.+12     	; 0x294a <__fp_mpack_finite+0xc>

0000293e <__fp_mpack_finite>:
    293e:	91 50       	subi	r25, 0x01	; 1
    2940:	20 f4       	brcc	.+8      	; 0x294a <__fp_mpack_finite+0xc>
    2942:	87 95       	ror	r24
    2944:	77 95       	ror	r23
    2946:	67 95       	ror	r22
    2948:	b7 95       	ror	r27
    294a:	88 0f       	add	r24, r24
    294c:	91 1d       	adc	r25, r1
    294e:	96 95       	lsr	r25
    2950:	87 95       	ror	r24
    2952:	97 f9       	bld	r25, 7
    2954:	08 95       	ret

00002956 <__fp_powsodd>:
    2956:	9f 93       	push	r25
    2958:	8f 93       	push	r24
    295a:	7f 93       	push	r23
    295c:	6f 93       	push	r22
    295e:	ff 93       	push	r31
    2960:	ef 93       	push	r30
    2962:	9b 01       	movw	r18, r22
    2964:	ac 01       	movw	r20, r24
    2966:	80 df       	rcall	.-256    	; 0x2868 <__mulsf3>
    2968:	ef 91       	pop	r30
    296a:	ff 91       	pop	r31
    296c:	05 d0       	rcall	.+10     	; 0x2978 <__fp_powser>
    296e:	2f 91       	pop	r18
    2970:	3f 91       	pop	r19
    2972:	4f 91       	pop	r20
    2974:	5f 91       	pop	r21
    2976:	78 cf       	rjmp	.-272    	; 0x2868 <__mulsf3>

00002978 <__fp_powser>:
    2978:	df 93       	push	r29
    297a:	cf 93       	push	r28
    297c:	1f 93       	push	r17
    297e:	0f 93       	push	r16
    2980:	ff 92       	push	r15
    2982:	ef 92       	push	r14
    2984:	df 92       	push	r13
    2986:	7b 01       	movw	r14, r22
    2988:	8c 01       	movw	r16, r24
    298a:	68 94       	set
    298c:	05 c0       	rjmp	.+10     	; 0x2998 <__fp_powser+0x20>
    298e:	da 2e       	mov	r13, r26
    2990:	ef 01       	movw	r28, r30
    2992:	76 df       	rcall	.-276    	; 0x2880 <__mulsf3x>
    2994:	fe 01       	movw	r30, r28
    2996:	e8 94       	clt
    2998:	a5 91       	lpm	r26, Z+
    299a:	25 91       	lpm	r18, Z+
    299c:	35 91       	lpm	r19, Z+
    299e:	45 91       	lpm	r20, Z+
    29a0:	55 91       	lpm	r21, Z+
    29a2:	ae f3       	brts	.-22     	; 0x298e <__fp_powser+0x16>
    29a4:	ef 01       	movw	r28, r30
    29a6:	2c dd       	rcall	.-1448   	; 0x2400 <__addsf3x>
    29a8:	fe 01       	movw	r30, r28
    29aa:	97 01       	movw	r18, r14
    29ac:	a8 01       	movw	r20, r16
    29ae:	da 94       	dec	r13
    29b0:	79 f7       	brne	.-34     	; 0x2990 <__fp_powser+0x18>
    29b2:	df 90       	pop	r13
    29b4:	ef 90       	pop	r14
    29b6:	ff 90       	pop	r15
    29b8:	0f 91       	pop	r16
    29ba:	1f 91       	pop	r17
    29bc:	cf 91       	pop	r28
    29be:	df 91       	pop	r29
    29c0:	08 95       	ret

000029c2 <__divmodhi4>:
    29c2:	97 fb       	bst	r25, 7
    29c4:	07 2e       	mov	r0, r23
    29c6:	16 f4       	brtc	.+4      	; 0x29cc <__divmodhi4+0xa>
    29c8:	00 94       	com	r0
    29ca:	06 d0       	rcall	.+12     	; 0x29d8 <__divmodhi4_neg1>
    29cc:	77 fd       	sbrc	r23, 7
    29ce:	08 d0       	rcall	.+16     	; 0x29e0 <__divmodhi4_neg2>
    29d0:	3c d0       	rcall	.+120    	; 0x2a4a <__udivmodhi4>
    29d2:	07 fc       	sbrc	r0, 7
    29d4:	05 d0       	rcall	.+10     	; 0x29e0 <__divmodhi4_neg2>
    29d6:	3e f4       	brtc	.+14     	; 0x29e6 <__divmodhi4_exit>

000029d8 <__divmodhi4_neg1>:
    29d8:	90 95       	com	r25
    29da:	81 95       	neg	r24
    29dc:	9f 4f       	sbci	r25, 0xFF	; 255
    29de:	08 95       	ret

000029e0 <__divmodhi4_neg2>:
    29e0:	70 95       	com	r23
    29e2:	61 95       	neg	r22
    29e4:	7f 4f       	sbci	r23, 0xFF	; 255

000029e6 <__divmodhi4_exit>:
    29e6:	08 95       	ret

000029e8 <__umulhisi3>:
    29e8:	a2 9f       	mul	r26, r18
    29ea:	b0 01       	movw	r22, r0
    29ec:	b3 9f       	mul	r27, r19
    29ee:	c0 01       	movw	r24, r0
    29f0:	a3 9f       	mul	r26, r19
    29f2:	70 0d       	add	r23, r0
    29f4:	81 1d       	adc	r24, r1
    29f6:	11 24       	eor	r1, r1
    29f8:	91 1d       	adc	r25, r1
    29fa:	b2 9f       	mul	r27, r18
    29fc:	70 0d       	add	r23, r0
    29fe:	81 1d       	adc	r24, r1
    2a00:	11 24       	eor	r1, r1
    2a02:	91 1d       	adc	r25, r1
    2a04:	08 95       	ret

00002a06 <__ashldi3>:
    2a06:	0f 93       	push	r16
    2a08:	08 30       	cpi	r16, 0x08	; 8
    2a0a:	90 f0       	brcs	.+36     	; 0x2a30 <__ashldi3+0x2a>
    2a0c:	98 2f       	mov	r25, r24
    2a0e:	87 2f       	mov	r24, r23
    2a10:	76 2f       	mov	r23, r22
    2a12:	65 2f       	mov	r22, r21
    2a14:	54 2f       	mov	r21, r20
    2a16:	43 2f       	mov	r20, r19
    2a18:	32 2f       	mov	r19, r18
    2a1a:	22 27       	eor	r18, r18
    2a1c:	08 50       	subi	r16, 0x08	; 8
    2a1e:	f4 cf       	rjmp	.-24     	; 0x2a08 <__ashldi3+0x2>
    2a20:	22 0f       	add	r18, r18
    2a22:	33 1f       	adc	r19, r19
    2a24:	44 1f       	adc	r20, r20
    2a26:	55 1f       	adc	r21, r21
    2a28:	66 1f       	adc	r22, r22
    2a2a:	77 1f       	adc	r23, r23
    2a2c:	88 1f       	adc	r24, r24
    2a2e:	99 1f       	adc	r25, r25
    2a30:	0a 95       	dec	r16
    2a32:	b2 f7       	brpl	.-20     	; 0x2a20 <__ashldi3+0x1a>
    2a34:	0f 91       	pop	r16
    2a36:	08 95       	ret

00002a38 <__adddi3>:
    2a38:	2a 0d       	add	r18, r10
    2a3a:	3b 1d       	adc	r19, r11
    2a3c:	4c 1d       	adc	r20, r12
    2a3e:	5d 1d       	adc	r21, r13
    2a40:	6e 1d       	adc	r22, r14
    2a42:	7f 1d       	adc	r23, r15
    2a44:	80 1f       	adc	r24, r16
    2a46:	91 1f       	adc	r25, r17
    2a48:	08 95       	ret

00002a4a <__udivmodhi4>:
    2a4a:	aa 1b       	sub	r26, r26
    2a4c:	bb 1b       	sub	r27, r27
    2a4e:	51 e1       	ldi	r21, 0x11	; 17
    2a50:	07 c0       	rjmp	.+14     	; 0x2a60 <__udivmodhi4_ep>

00002a52 <__udivmodhi4_loop>:
    2a52:	aa 1f       	adc	r26, r26
    2a54:	bb 1f       	adc	r27, r27
    2a56:	a6 17       	cp	r26, r22
    2a58:	b7 07       	cpc	r27, r23
    2a5a:	10 f0       	brcs	.+4      	; 0x2a60 <__udivmodhi4_ep>
    2a5c:	a6 1b       	sub	r26, r22
    2a5e:	b7 0b       	sbc	r27, r23

00002a60 <__udivmodhi4_ep>:
    2a60:	88 1f       	adc	r24, r24
    2a62:	99 1f       	adc	r25, r25
    2a64:	5a 95       	dec	r21
    2a66:	a9 f7       	brne	.-22     	; 0x2a52 <__udivmodhi4_loop>
    2a68:	80 95       	com	r24
    2a6a:	90 95       	com	r25
    2a6c:	bc 01       	movw	r22, r24
    2a6e:	cd 01       	movw	r24, r26
    2a70:	08 95       	ret

00002a72 <vfprintf>:
    2a72:	2f 92       	push	r2
    2a74:	3f 92       	push	r3
    2a76:	4f 92       	push	r4
    2a78:	5f 92       	push	r5
    2a7a:	6f 92       	push	r6
    2a7c:	7f 92       	push	r7
    2a7e:	8f 92       	push	r8
    2a80:	9f 92       	push	r9
    2a82:	af 92       	push	r10
    2a84:	bf 92       	push	r11
    2a86:	cf 92       	push	r12
    2a88:	df 92       	push	r13
    2a8a:	ef 92       	push	r14
    2a8c:	ff 92       	push	r15
    2a8e:	0f 93       	push	r16
    2a90:	1f 93       	push	r17
    2a92:	cf 93       	push	r28
    2a94:	df 93       	push	r29
    2a96:	cd b7       	in	r28, 0x3d	; 61
    2a98:	de b7       	in	r29, 0x3e	; 62
    2a9a:	2c 97       	sbiw	r28, 0x0c	; 12
    2a9c:	cd bf       	out	0x3d, r28	; 61
    2a9e:	de bf       	out	0x3e, r29	; 62
    2aa0:	7c 01       	movw	r14, r24
    2aa2:	6b 01       	movw	r12, r22
    2aa4:	8a 01       	movw	r16, r20
    2aa6:	fc 01       	movw	r30, r24
    2aa8:	16 82       	std	Z+6, r1	; 0x06
    2aaa:	17 82       	std	Z+7, r1	; 0x07
    2aac:	83 81       	ldd	r24, Z+3	; 0x03
    2aae:	81 ff       	sbrs	r24, 1
    2ab0:	b0 c1       	rjmp	.+864    	; 0x2e12 <vfprintf+0x3a0>
    2ab2:	ce 01       	movw	r24, r28
    2ab4:	01 96       	adiw	r24, 0x01	; 1
    2ab6:	4c 01       	movw	r8, r24
    2ab8:	f7 01       	movw	r30, r14
    2aba:	93 81       	ldd	r25, Z+3	; 0x03
    2abc:	f6 01       	movw	r30, r12
    2abe:	93 fd       	sbrc	r25, 3
    2ac0:	85 91       	lpm	r24, Z+
    2ac2:	93 ff       	sbrs	r25, 3
    2ac4:	81 91       	ld	r24, Z+
    2ac6:	6f 01       	movw	r12, r30
    2ac8:	88 23       	and	r24, r24
    2aca:	09 f4       	brne	.+2      	; 0x2ace <vfprintf+0x5c>
    2acc:	9e c1       	rjmp	.+828    	; 0x2e0a <vfprintf+0x398>
    2ace:	85 32       	cpi	r24, 0x25	; 37
    2ad0:	39 f4       	brne	.+14     	; 0x2ae0 <vfprintf+0x6e>
    2ad2:	93 fd       	sbrc	r25, 3
    2ad4:	85 91       	lpm	r24, Z+
    2ad6:	93 ff       	sbrs	r25, 3
    2ad8:	81 91       	ld	r24, Z+
    2ada:	6f 01       	movw	r12, r30
    2adc:	85 32       	cpi	r24, 0x25	; 37
    2ade:	21 f4       	brne	.+8      	; 0x2ae8 <vfprintf+0x76>
    2ae0:	b7 01       	movw	r22, r14
    2ae2:	90 e0       	ldi	r25, 0x00	; 0
    2ae4:	c4 d1       	rcall	.+904    	; 0x2e6e <fputc>
    2ae6:	e8 cf       	rjmp	.-48     	; 0x2ab8 <vfprintf+0x46>
    2ae8:	51 2c       	mov	r5, r1
    2aea:	31 2c       	mov	r3, r1
    2aec:	20 e0       	ldi	r18, 0x00	; 0
    2aee:	20 32       	cpi	r18, 0x20	; 32
    2af0:	a0 f4       	brcc	.+40     	; 0x2b1a <vfprintf+0xa8>
    2af2:	8b 32       	cpi	r24, 0x2B	; 43
    2af4:	69 f0       	breq	.+26     	; 0x2b10 <vfprintf+0x9e>
    2af6:	30 f4       	brcc	.+12     	; 0x2b04 <vfprintf+0x92>
    2af8:	80 32       	cpi	r24, 0x20	; 32
    2afa:	59 f0       	breq	.+22     	; 0x2b12 <vfprintf+0xa0>
    2afc:	83 32       	cpi	r24, 0x23	; 35
    2afe:	69 f4       	brne	.+26     	; 0x2b1a <vfprintf+0xa8>
    2b00:	20 61       	ori	r18, 0x10	; 16
    2b02:	2c c0       	rjmp	.+88     	; 0x2b5c <vfprintf+0xea>
    2b04:	8d 32       	cpi	r24, 0x2D	; 45
    2b06:	39 f0       	breq	.+14     	; 0x2b16 <vfprintf+0xa4>
    2b08:	80 33       	cpi	r24, 0x30	; 48
    2b0a:	39 f4       	brne	.+14     	; 0x2b1a <vfprintf+0xa8>
    2b0c:	21 60       	ori	r18, 0x01	; 1
    2b0e:	26 c0       	rjmp	.+76     	; 0x2b5c <vfprintf+0xea>
    2b10:	22 60       	ori	r18, 0x02	; 2
    2b12:	24 60       	ori	r18, 0x04	; 4
    2b14:	23 c0       	rjmp	.+70     	; 0x2b5c <vfprintf+0xea>
    2b16:	28 60       	ori	r18, 0x08	; 8
    2b18:	21 c0       	rjmp	.+66     	; 0x2b5c <vfprintf+0xea>
    2b1a:	27 fd       	sbrc	r18, 7
    2b1c:	27 c0       	rjmp	.+78     	; 0x2b6c <vfprintf+0xfa>
    2b1e:	30 ed       	ldi	r19, 0xD0	; 208
    2b20:	38 0f       	add	r19, r24
    2b22:	3a 30       	cpi	r19, 0x0A	; 10
    2b24:	78 f4       	brcc	.+30     	; 0x2b44 <vfprintf+0xd2>
    2b26:	26 ff       	sbrs	r18, 6
    2b28:	06 c0       	rjmp	.+12     	; 0x2b36 <vfprintf+0xc4>
    2b2a:	fa e0       	ldi	r31, 0x0A	; 10
    2b2c:	5f 9e       	mul	r5, r31
    2b2e:	30 0d       	add	r19, r0
    2b30:	11 24       	eor	r1, r1
    2b32:	53 2e       	mov	r5, r19
    2b34:	13 c0       	rjmp	.+38     	; 0x2b5c <vfprintf+0xea>
    2b36:	8a e0       	ldi	r24, 0x0A	; 10
    2b38:	38 9e       	mul	r3, r24
    2b3a:	30 0d       	add	r19, r0
    2b3c:	11 24       	eor	r1, r1
    2b3e:	33 2e       	mov	r3, r19
    2b40:	20 62       	ori	r18, 0x20	; 32
    2b42:	0c c0       	rjmp	.+24     	; 0x2b5c <vfprintf+0xea>
    2b44:	8e 32       	cpi	r24, 0x2E	; 46
    2b46:	21 f4       	brne	.+8      	; 0x2b50 <vfprintf+0xde>
    2b48:	26 fd       	sbrc	r18, 6
    2b4a:	5f c1       	rjmp	.+702    	; 0x2e0a <vfprintf+0x398>
    2b4c:	20 64       	ori	r18, 0x40	; 64
    2b4e:	06 c0       	rjmp	.+12     	; 0x2b5c <vfprintf+0xea>
    2b50:	8c 36       	cpi	r24, 0x6C	; 108
    2b52:	11 f4       	brne	.+4      	; 0x2b58 <vfprintf+0xe6>
    2b54:	20 68       	ori	r18, 0x80	; 128
    2b56:	02 c0       	rjmp	.+4      	; 0x2b5c <vfprintf+0xea>
    2b58:	88 36       	cpi	r24, 0x68	; 104
    2b5a:	41 f4       	brne	.+16     	; 0x2b6c <vfprintf+0xfa>
    2b5c:	f6 01       	movw	r30, r12
    2b5e:	93 fd       	sbrc	r25, 3
    2b60:	85 91       	lpm	r24, Z+
    2b62:	93 ff       	sbrs	r25, 3
    2b64:	81 91       	ld	r24, Z+
    2b66:	6f 01       	movw	r12, r30
    2b68:	81 11       	cpse	r24, r1
    2b6a:	c1 cf       	rjmp	.-126    	; 0x2aee <vfprintf+0x7c>
    2b6c:	98 2f       	mov	r25, r24
    2b6e:	9f 7d       	andi	r25, 0xDF	; 223
    2b70:	95 54       	subi	r25, 0x45	; 69
    2b72:	93 30       	cpi	r25, 0x03	; 3
    2b74:	28 f4       	brcc	.+10     	; 0x2b80 <vfprintf+0x10e>
    2b76:	0c 5f       	subi	r16, 0xFC	; 252
    2b78:	1f 4f       	sbci	r17, 0xFF	; 255
    2b7a:	ff e3       	ldi	r31, 0x3F	; 63
    2b7c:	f9 83       	std	Y+1, r31	; 0x01
    2b7e:	0d c0       	rjmp	.+26     	; 0x2b9a <vfprintf+0x128>
    2b80:	83 36       	cpi	r24, 0x63	; 99
    2b82:	31 f0       	breq	.+12     	; 0x2b90 <vfprintf+0x11e>
    2b84:	83 37       	cpi	r24, 0x73	; 115
    2b86:	71 f0       	breq	.+28     	; 0x2ba4 <vfprintf+0x132>
    2b88:	83 35       	cpi	r24, 0x53	; 83
    2b8a:	09 f0       	breq	.+2      	; 0x2b8e <vfprintf+0x11c>
    2b8c:	57 c0       	rjmp	.+174    	; 0x2c3c <vfprintf+0x1ca>
    2b8e:	21 c0       	rjmp	.+66     	; 0x2bd2 <vfprintf+0x160>
    2b90:	f8 01       	movw	r30, r16
    2b92:	80 81       	ld	r24, Z
    2b94:	89 83       	std	Y+1, r24	; 0x01
    2b96:	0e 5f       	subi	r16, 0xFE	; 254
    2b98:	1f 4f       	sbci	r17, 0xFF	; 255
    2b9a:	44 24       	eor	r4, r4
    2b9c:	43 94       	inc	r4
    2b9e:	51 2c       	mov	r5, r1
    2ba0:	54 01       	movw	r10, r8
    2ba2:	14 c0       	rjmp	.+40     	; 0x2bcc <vfprintf+0x15a>
    2ba4:	38 01       	movw	r6, r16
    2ba6:	f2 e0       	ldi	r31, 0x02	; 2
    2ba8:	6f 0e       	add	r6, r31
    2baa:	71 1c       	adc	r7, r1
    2bac:	f8 01       	movw	r30, r16
    2bae:	a0 80       	ld	r10, Z
    2bb0:	b1 80       	ldd	r11, Z+1	; 0x01
    2bb2:	26 ff       	sbrs	r18, 6
    2bb4:	03 c0       	rjmp	.+6      	; 0x2bbc <vfprintf+0x14a>
    2bb6:	65 2d       	mov	r22, r5
    2bb8:	70 e0       	ldi	r23, 0x00	; 0
    2bba:	02 c0       	rjmp	.+4      	; 0x2bc0 <vfprintf+0x14e>
    2bbc:	6f ef       	ldi	r22, 0xFF	; 255
    2bbe:	7f ef       	ldi	r23, 0xFF	; 255
    2bc0:	c5 01       	movw	r24, r10
    2bc2:	2c 87       	std	Y+12, r18	; 0x0c
    2bc4:	49 d1       	rcall	.+658    	; 0x2e58 <strnlen>
    2bc6:	2c 01       	movw	r4, r24
    2bc8:	83 01       	movw	r16, r6
    2bca:	2c 85       	ldd	r18, Y+12	; 0x0c
    2bcc:	2f 77       	andi	r18, 0x7F	; 127
    2bce:	22 2e       	mov	r2, r18
    2bd0:	16 c0       	rjmp	.+44     	; 0x2bfe <vfprintf+0x18c>
    2bd2:	38 01       	movw	r6, r16
    2bd4:	f2 e0       	ldi	r31, 0x02	; 2
    2bd6:	6f 0e       	add	r6, r31
    2bd8:	71 1c       	adc	r7, r1
    2bda:	f8 01       	movw	r30, r16
    2bdc:	a0 80       	ld	r10, Z
    2bde:	b1 80       	ldd	r11, Z+1	; 0x01
    2be0:	26 ff       	sbrs	r18, 6
    2be2:	03 c0       	rjmp	.+6      	; 0x2bea <vfprintf+0x178>
    2be4:	65 2d       	mov	r22, r5
    2be6:	70 e0       	ldi	r23, 0x00	; 0
    2be8:	02 c0       	rjmp	.+4      	; 0x2bee <vfprintf+0x17c>
    2bea:	6f ef       	ldi	r22, 0xFF	; 255
    2bec:	7f ef       	ldi	r23, 0xFF	; 255
    2bee:	c5 01       	movw	r24, r10
    2bf0:	2c 87       	std	Y+12, r18	; 0x0c
    2bf2:	27 d1       	rcall	.+590    	; 0x2e42 <strnlen_P>
    2bf4:	2c 01       	movw	r4, r24
    2bf6:	2c 85       	ldd	r18, Y+12	; 0x0c
    2bf8:	20 68       	ori	r18, 0x80	; 128
    2bfa:	22 2e       	mov	r2, r18
    2bfc:	83 01       	movw	r16, r6
    2bfe:	23 fc       	sbrc	r2, 3
    2c00:	19 c0       	rjmp	.+50     	; 0x2c34 <vfprintf+0x1c2>
    2c02:	83 2d       	mov	r24, r3
    2c04:	90 e0       	ldi	r25, 0x00	; 0
    2c06:	48 16       	cp	r4, r24
    2c08:	59 06       	cpc	r5, r25
    2c0a:	a0 f4       	brcc	.+40     	; 0x2c34 <vfprintf+0x1c2>
    2c0c:	b7 01       	movw	r22, r14
    2c0e:	80 e2       	ldi	r24, 0x20	; 32
    2c10:	90 e0       	ldi	r25, 0x00	; 0
    2c12:	2d d1       	rcall	.+602    	; 0x2e6e <fputc>
    2c14:	3a 94       	dec	r3
    2c16:	f5 cf       	rjmp	.-22     	; 0x2c02 <vfprintf+0x190>
    2c18:	f5 01       	movw	r30, r10
    2c1a:	27 fc       	sbrc	r2, 7
    2c1c:	85 91       	lpm	r24, Z+
    2c1e:	27 fe       	sbrs	r2, 7
    2c20:	81 91       	ld	r24, Z+
    2c22:	5f 01       	movw	r10, r30
    2c24:	b7 01       	movw	r22, r14
    2c26:	90 e0       	ldi	r25, 0x00	; 0
    2c28:	22 d1       	rcall	.+580    	; 0x2e6e <fputc>
    2c2a:	31 10       	cpse	r3, r1
    2c2c:	3a 94       	dec	r3
    2c2e:	f1 e0       	ldi	r31, 0x01	; 1
    2c30:	4f 1a       	sub	r4, r31
    2c32:	51 08       	sbc	r5, r1
    2c34:	41 14       	cp	r4, r1
    2c36:	51 04       	cpc	r5, r1
    2c38:	79 f7       	brne	.-34     	; 0x2c18 <vfprintf+0x1a6>
    2c3a:	de c0       	rjmp	.+444    	; 0x2df8 <vfprintf+0x386>
    2c3c:	84 36       	cpi	r24, 0x64	; 100
    2c3e:	11 f0       	breq	.+4      	; 0x2c44 <vfprintf+0x1d2>
    2c40:	89 36       	cpi	r24, 0x69	; 105
    2c42:	31 f5       	brne	.+76     	; 0x2c90 <vfprintf+0x21e>
    2c44:	f8 01       	movw	r30, r16
    2c46:	27 ff       	sbrs	r18, 7
    2c48:	07 c0       	rjmp	.+14     	; 0x2c58 <vfprintf+0x1e6>
    2c4a:	60 81       	ld	r22, Z
    2c4c:	71 81       	ldd	r23, Z+1	; 0x01
    2c4e:	82 81       	ldd	r24, Z+2	; 0x02
    2c50:	93 81       	ldd	r25, Z+3	; 0x03
    2c52:	0c 5f       	subi	r16, 0xFC	; 252
    2c54:	1f 4f       	sbci	r17, 0xFF	; 255
    2c56:	08 c0       	rjmp	.+16     	; 0x2c68 <vfprintf+0x1f6>
    2c58:	60 81       	ld	r22, Z
    2c5a:	71 81       	ldd	r23, Z+1	; 0x01
    2c5c:	07 2e       	mov	r0, r23
    2c5e:	00 0c       	add	r0, r0
    2c60:	88 0b       	sbc	r24, r24
    2c62:	99 0b       	sbc	r25, r25
    2c64:	0e 5f       	subi	r16, 0xFE	; 254
    2c66:	1f 4f       	sbci	r17, 0xFF	; 255
    2c68:	2f 76       	andi	r18, 0x6F	; 111
    2c6a:	72 2e       	mov	r7, r18
    2c6c:	97 ff       	sbrs	r25, 7
    2c6e:	09 c0       	rjmp	.+18     	; 0x2c82 <vfprintf+0x210>
    2c70:	90 95       	com	r25
    2c72:	80 95       	com	r24
    2c74:	70 95       	com	r23
    2c76:	61 95       	neg	r22
    2c78:	7f 4f       	sbci	r23, 0xFF	; 255
    2c7a:	8f 4f       	sbci	r24, 0xFF	; 255
    2c7c:	9f 4f       	sbci	r25, 0xFF	; 255
    2c7e:	20 68       	ori	r18, 0x80	; 128
    2c80:	72 2e       	mov	r7, r18
    2c82:	2a e0       	ldi	r18, 0x0A	; 10
    2c84:	30 e0       	ldi	r19, 0x00	; 0
    2c86:	a4 01       	movw	r20, r8
    2c88:	2a d1       	rcall	.+596    	; 0x2ede <__ultoa_invert>
    2c8a:	a8 2e       	mov	r10, r24
    2c8c:	a8 18       	sub	r10, r8
    2c8e:	43 c0       	rjmp	.+134    	; 0x2d16 <vfprintf+0x2a4>
    2c90:	85 37       	cpi	r24, 0x75	; 117
    2c92:	29 f4       	brne	.+10     	; 0x2c9e <vfprintf+0x22c>
    2c94:	2f 7e       	andi	r18, 0xEF	; 239
    2c96:	b2 2e       	mov	r11, r18
    2c98:	2a e0       	ldi	r18, 0x0A	; 10
    2c9a:	30 e0       	ldi	r19, 0x00	; 0
    2c9c:	25 c0       	rjmp	.+74     	; 0x2ce8 <vfprintf+0x276>
    2c9e:	f2 2f       	mov	r31, r18
    2ca0:	f9 7f       	andi	r31, 0xF9	; 249
    2ca2:	bf 2e       	mov	r11, r31
    2ca4:	8f 36       	cpi	r24, 0x6F	; 111
    2ca6:	c1 f0       	breq	.+48     	; 0x2cd8 <vfprintf+0x266>
    2ca8:	18 f4       	brcc	.+6      	; 0x2cb0 <vfprintf+0x23e>
    2caa:	88 35       	cpi	r24, 0x58	; 88
    2cac:	79 f0       	breq	.+30     	; 0x2ccc <vfprintf+0x25a>
    2cae:	ad c0       	rjmp	.+346    	; 0x2e0a <vfprintf+0x398>
    2cb0:	80 37       	cpi	r24, 0x70	; 112
    2cb2:	19 f0       	breq	.+6      	; 0x2cba <vfprintf+0x248>
    2cb4:	88 37       	cpi	r24, 0x78	; 120
    2cb6:	21 f0       	breq	.+8      	; 0x2cc0 <vfprintf+0x24e>
    2cb8:	a8 c0       	rjmp	.+336    	; 0x2e0a <vfprintf+0x398>
    2cba:	2f 2f       	mov	r18, r31
    2cbc:	20 61       	ori	r18, 0x10	; 16
    2cbe:	b2 2e       	mov	r11, r18
    2cc0:	b4 fe       	sbrs	r11, 4
    2cc2:	0d c0       	rjmp	.+26     	; 0x2cde <vfprintf+0x26c>
    2cc4:	8b 2d       	mov	r24, r11
    2cc6:	84 60       	ori	r24, 0x04	; 4
    2cc8:	b8 2e       	mov	r11, r24
    2cca:	09 c0       	rjmp	.+18     	; 0x2cde <vfprintf+0x26c>
    2ccc:	24 ff       	sbrs	r18, 4
    2cce:	0a c0       	rjmp	.+20     	; 0x2ce4 <vfprintf+0x272>
    2cd0:	9f 2f       	mov	r25, r31
    2cd2:	96 60       	ori	r25, 0x06	; 6
    2cd4:	b9 2e       	mov	r11, r25
    2cd6:	06 c0       	rjmp	.+12     	; 0x2ce4 <vfprintf+0x272>
    2cd8:	28 e0       	ldi	r18, 0x08	; 8
    2cda:	30 e0       	ldi	r19, 0x00	; 0
    2cdc:	05 c0       	rjmp	.+10     	; 0x2ce8 <vfprintf+0x276>
    2cde:	20 e1       	ldi	r18, 0x10	; 16
    2ce0:	30 e0       	ldi	r19, 0x00	; 0
    2ce2:	02 c0       	rjmp	.+4      	; 0x2ce8 <vfprintf+0x276>
    2ce4:	20 e1       	ldi	r18, 0x10	; 16
    2ce6:	32 e0       	ldi	r19, 0x02	; 2
    2ce8:	f8 01       	movw	r30, r16
    2cea:	b7 fe       	sbrs	r11, 7
    2cec:	07 c0       	rjmp	.+14     	; 0x2cfc <vfprintf+0x28a>
    2cee:	60 81       	ld	r22, Z
    2cf0:	71 81       	ldd	r23, Z+1	; 0x01
    2cf2:	82 81       	ldd	r24, Z+2	; 0x02
    2cf4:	93 81       	ldd	r25, Z+3	; 0x03
    2cf6:	0c 5f       	subi	r16, 0xFC	; 252
    2cf8:	1f 4f       	sbci	r17, 0xFF	; 255
    2cfa:	06 c0       	rjmp	.+12     	; 0x2d08 <vfprintf+0x296>
    2cfc:	60 81       	ld	r22, Z
    2cfe:	71 81       	ldd	r23, Z+1	; 0x01
    2d00:	80 e0       	ldi	r24, 0x00	; 0
    2d02:	90 e0       	ldi	r25, 0x00	; 0
    2d04:	0e 5f       	subi	r16, 0xFE	; 254
    2d06:	1f 4f       	sbci	r17, 0xFF	; 255
    2d08:	a4 01       	movw	r20, r8
    2d0a:	e9 d0       	rcall	.+466    	; 0x2ede <__ultoa_invert>
    2d0c:	a8 2e       	mov	r10, r24
    2d0e:	a8 18       	sub	r10, r8
    2d10:	fb 2d       	mov	r31, r11
    2d12:	ff 77       	andi	r31, 0x7F	; 127
    2d14:	7f 2e       	mov	r7, r31
    2d16:	76 fe       	sbrs	r7, 6
    2d18:	0b c0       	rjmp	.+22     	; 0x2d30 <vfprintf+0x2be>
    2d1a:	37 2d       	mov	r19, r7
    2d1c:	3e 7f       	andi	r19, 0xFE	; 254
    2d1e:	a5 14       	cp	r10, r5
    2d20:	50 f4       	brcc	.+20     	; 0x2d36 <vfprintf+0x2c4>
    2d22:	74 fe       	sbrs	r7, 4
    2d24:	0a c0       	rjmp	.+20     	; 0x2d3a <vfprintf+0x2c8>
    2d26:	72 fc       	sbrc	r7, 2
    2d28:	08 c0       	rjmp	.+16     	; 0x2d3a <vfprintf+0x2c8>
    2d2a:	37 2d       	mov	r19, r7
    2d2c:	3e 7e       	andi	r19, 0xEE	; 238
    2d2e:	05 c0       	rjmp	.+10     	; 0x2d3a <vfprintf+0x2c8>
    2d30:	ba 2c       	mov	r11, r10
    2d32:	37 2d       	mov	r19, r7
    2d34:	03 c0       	rjmp	.+6      	; 0x2d3c <vfprintf+0x2ca>
    2d36:	ba 2c       	mov	r11, r10
    2d38:	01 c0       	rjmp	.+2      	; 0x2d3c <vfprintf+0x2ca>
    2d3a:	b5 2c       	mov	r11, r5
    2d3c:	34 ff       	sbrs	r19, 4
    2d3e:	0d c0       	rjmp	.+26     	; 0x2d5a <vfprintf+0x2e8>
    2d40:	fe 01       	movw	r30, r28
    2d42:	ea 0d       	add	r30, r10
    2d44:	f1 1d       	adc	r31, r1
    2d46:	80 81       	ld	r24, Z
    2d48:	80 33       	cpi	r24, 0x30	; 48
    2d4a:	11 f4       	brne	.+4      	; 0x2d50 <vfprintf+0x2de>
    2d4c:	39 7e       	andi	r19, 0xE9	; 233
    2d4e:	09 c0       	rjmp	.+18     	; 0x2d62 <vfprintf+0x2f0>
    2d50:	32 ff       	sbrs	r19, 2
    2d52:	06 c0       	rjmp	.+12     	; 0x2d60 <vfprintf+0x2ee>
    2d54:	b3 94       	inc	r11
    2d56:	b3 94       	inc	r11
    2d58:	04 c0       	rjmp	.+8      	; 0x2d62 <vfprintf+0x2f0>
    2d5a:	83 2f       	mov	r24, r19
    2d5c:	86 78       	andi	r24, 0x86	; 134
    2d5e:	09 f0       	breq	.+2      	; 0x2d62 <vfprintf+0x2f0>
    2d60:	b3 94       	inc	r11
    2d62:	33 fd       	sbrc	r19, 3
    2d64:	12 c0       	rjmp	.+36     	; 0x2d8a <vfprintf+0x318>
    2d66:	30 ff       	sbrs	r19, 0
    2d68:	06 c0       	rjmp	.+12     	; 0x2d76 <vfprintf+0x304>
    2d6a:	5a 2c       	mov	r5, r10
    2d6c:	b3 14       	cp	r11, r3
    2d6e:	18 f4       	brcc	.+6      	; 0x2d76 <vfprintf+0x304>
    2d70:	53 0c       	add	r5, r3
    2d72:	5b 18       	sub	r5, r11
    2d74:	b3 2c       	mov	r11, r3
    2d76:	b3 14       	cp	r11, r3
    2d78:	60 f4       	brcc	.+24     	; 0x2d92 <vfprintf+0x320>
    2d7a:	b7 01       	movw	r22, r14
    2d7c:	80 e2       	ldi	r24, 0x20	; 32
    2d7e:	90 e0       	ldi	r25, 0x00	; 0
    2d80:	3c 87       	std	Y+12, r19	; 0x0c
    2d82:	75 d0       	rcall	.+234    	; 0x2e6e <fputc>
    2d84:	b3 94       	inc	r11
    2d86:	3c 85       	ldd	r19, Y+12	; 0x0c
    2d88:	f6 cf       	rjmp	.-20     	; 0x2d76 <vfprintf+0x304>
    2d8a:	b3 14       	cp	r11, r3
    2d8c:	10 f4       	brcc	.+4      	; 0x2d92 <vfprintf+0x320>
    2d8e:	3b 18       	sub	r3, r11
    2d90:	01 c0       	rjmp	.+2      	; 0x2d94 <vfprintf+0x322>
    2d92:	31 2c       	mov	r3, r1
    2d94:	34 ff       	sbrs	r19, 4
    2d96:	11 c0       	rjmp	.+34     	; 0x2dba <vfprintf+0x348>
    2d98:	b7 01       	movw	r22, r14
    2d9a:	80 e3       	ldi	r24, 0x30	; 48
    2d9c:	90 e0       	ldi	r25, 0x00	; 0
    2d9e:	3c 87       	std	Y+12, r19	; 0x0c
    2da0:	66 d0       	rcall	.+204    	; 0x2e6e <fputc>
    2da2:	3c 85       	ldd	r19, Y+12	; 0x0c
    2da4:	32 ff       	sbrs	r19, 2
    2da6:	16 c0       	rjmp	.+44     	; 0x2dd4 <vfprintf+0x362>
    2da8:	31 fd       	sbrc	r19, 1
    2daa:	03 c0       	rjmp	.+6      	; 0x2db2 <vfprintf+0x340>
    2dac:	88 e7       	ldi	r24, 0x78	; 120
    2dae:	90 e0       	ldi	r25, 0x00	; 0
    2db0:	02 c0       	rjmp	.+4      	; 0x2db6 <vfprintf+0x344>
    2db2:	88 e5       	ldi	r24, 0x58	; 88
    2db4:	90 e0       	ldi	r25, 0x00	; 0
    2db6:	b7 01       	movw	r22, r14
    2db8:	0c c0       	rjmp	.+24     	; 0x2dd2 <vfprintf+0x360>
    2dba:	83 2f       	mov	r24, r19
    2dbc:	86 78       	andi	r24, 0x86	; 134
    2dbe:	51 f0       	breq	.+20     	; 0x2dd4 <vfprintf+0x362>
    2dc0:	31 ff       	sbrs	r19, 1
    2dc2:	02 c0       	rjmp	.+4      	; 0x2dc8 <vfprintf+0x356>
    2dc4:	8b e2       	ldi	r24, 0x2B	; 43
    2dc6:	01 c0       	rjmp	.+2      	; 0x2dca <vfprintf+0x358>
    2dc8:	80 e2       	ldi	r24, 0x20	; 32
    2dca:	37 fd       	sbrc	r19, 7
    2dcc:	8d e2       	ldi	r24, 0x2D	; 45
    2dce:	b7 01       	movw	r22, r14
    2dd0:	90 e0       	ldi	r25, 0x00	; 0
    2dd2:	4d d0       	rcall	.+154    	; 0x2e6e <fputc>
    2dd4:	a5 14       	cp	r10, r5
    2dd6:	30 f4       	brcc	.+12     	; 0x2de4 <vfprintf+0x372>
    2dd8:	b7 01       	movw	r22, r14
    2dda:	80 e3       	ldi	r24, 0x30	; 48
    2ddc:	90 e0       	ldi	r25, 0x00	; 0
    2dde:	47 d0       	rcall	.+142    	; 0x2e6e <fputc>
    2de0:	5a 94       	dec	r5
    2de2:	f8 cf       	rjmp	.-16     	; 0x2dd4 <vfprintf+0x362>
    2de4:	aa 94       	dec	r10
    2de6:	f4 01       	movw	r30, r8
    2de8:	ea 0d       	add	r30, r10
    2dea:	f1 1d       	adc	r31, r1
    2dec:	80 81       	ld	r24, Z
    2dee:	b7 01       	movw	r22, r14
    2df0:	90 e0       	ldi	r25, 0x00	; 0
    2df2:	3d d0       	rcall	.+122    	; 0x2e6e <fputc>
    2df4:	a1 10       	cpse	r10, r1
    2df6:	f6 cf       	rjmp	.-20     	; 0x2de4 <vfprintf+0x372>
    2df8:	33 20       	and	r3, r3
    2dfa:	09 f4       	brne	.+2      	; 0x2dfe <vfprintf+0x38c>
    2dfc:	5d ce       	rjmp	.-838    	; 0x2ab8 <vfprintf+0x46>
    2dfe:	b7 01       	movw	r22, r14
    2e00:	80 e2       	ldi	r24, 0x20	; 32
    2e02:	90 e0       	ldi	r25, 0x00	; 0
    2e04:	34 d0       	rcall	.+104    	; 0x2e6e <fputc>
    2e06:	3a 94       	dec	r3
    2e08:	f7 cf       	rjmp	.-18     	; 0x2df8 <vfprintf+0x386>
    2e0a:	f7 01       	movw	r30, r14
    2e0c:	86 81       	ldd	r24, Z+6	; 0x06
    2e0e:	97 81       	ldd	r25, Z+7	; 0x07
    2e10:	02 c0       	rjmp	.+4      	; 0x2e16 <vfprintf+0x3a4>
    2e12:	8f ef       	ldi	r24, 0xFF	; 255
    2e14:	9f ef       	ldi	r25, 0xFF	; 255
    2e16:	2c 96       	adiw	r28, 0x0c	; 12
    2e18:	cd bf       	out	0x3d, r28	; 61
    2e1a:	de bf       	out	0x3e, r29	; 62
    2e1c:	df 91       	pop	r29
    2e1e:	cf 91       	pop	r28
    2e20:	1f 91       	pop	r17
    2e22:	0f 91       	pop	r16
    2e24:	ff 90       	pop	r15
    2e26:	ef 90       	pop	r14
    2e28:	df 90       	pop	r13
    2e2a:	cf 90       	pop	r12
    2e2c:	bf 90       	pop	r11
    2e2e:	af 90       	pop	r10
    2e30:	9f 90       	pop	r9
    2e32:	8f 90       	pop	r8
    2e34:	7f 90       	pop	r7
    2e36:	6f 90       	pop	r6
    2e38:	5f 90       	pop	r5
    2e3a:	4f 90       	pop	r4
    2e3c:	3f 90       	pop	r3
    2e3e:	2f 90       	pop	r2
    2e40:	08 95       	ret

00002e42 <strnlen_P>:
    2e42:	fc 01       	movw	r30, r24
    2e44:	05 90       	lpm	r0, Z+
    2e46:	61 50       	subi	r22, 0x01	; 1
    2e48:	70 40       	sbci	r23, 0x00	; 0
    2e4a:	01 10       	cpse	r0, r1
    2e4c:	d8 f7       	brcc	.-10     	; 0x2e44 <strnlen_P+0x2>
    2e4e:	80 95       	com	r24
    2e50:	90 95       	com	r25
    2e52:	8e 0f       	add	r24, r30
    2e54:	9f 1f       	adc	r25, r31
    2e56:	08 95       	ret

00002e58 <strnlen>:
    2e58:	fc 01       	movw	r30, r24
    2e5a:	61 50       	subi	r22, 0x01	; 1
    2e5c:	70 40       	sbci	r23, 0x00	; 0
    2e5e:	01 90       	ld	r0, Z+
    2e60:	01 10       	cpse	r0, r1
    2e62:	d8 f7       	brcc	.-10     	; 0x2e5a <strnlen+0x2>
    2e64:	80 95       	com	r24
    2e66:	90 95       	com	r25
    2e68:	8e 0f       	add	r24, r30
    2e6a:	9f 1f       	adc	r25, r31
    2e6c:	08 95       	ret

00002e6e <fputc>:
    2e6e:	0f 93       	push	r16
    2e70:	1f 93       	push	r17
    2e72:	cf 93       	push	r28
    2e74:	df 93       	push	r29
    2e76:	fb 01       	movw	r30, r22
    2e78:	23 81       	ldd	r18, Z+3	; 0x03
    2e7a:	21 fd       	sbrc	r18, 1
    2e7c:	03 c0       	rjmp	.+6      	; 0x2e84 <fputc+0x16>
    2e7e:	8f ef       	ldi	r24, 0xFF	; 255
    2e80:	9f ef       	ldi	r25, 0xFF	; 255
    2e82:	28 c0       	rjmp	.+80     	; 0x2ed4 <fputc+0x66>
    2e84:	22 ff       	sbrs	r18, 2
    2e86:	16 c0       	rjmp	.+44     	; 0x2eb4 <fputc+0x46>
    2e88:	46 81       	ldd	r20, Z+6	; 0x06
    2e8a:	57 81       	ldd	r21, Z+7	; 0x07
    2e8c:	24 81       	ldd	r18, Z+4	; 0x04
    2e8e:	35 81       	ldd	r19, Z+5	; 0x05
    2e90:	42 17       	cp	r20, r18
    2e92:	53 07       	cpc	r21, r19
    2e94:	44 f4       	brge	.+16     	; 0x2ea6 <fputc+0x38>
    2e96:	a0 81       	ld	r26, Z
    2e98:	b1 81       	ldd	r27, Z+1	; 0x01
    2e9a:	9d 01       	movw	r18, r26
    2e9c:	2f 5f       	subi	r18, 0xFF	; 255
    2e9e:	3f 4f       	sbci	r19, 0xFF	; 255
    2ea0:	20 83       	st	Z, r18
    2ea2:	31 83       	std	Z+1, r19	; 0x01
    2ea4:	8c 93       	st	X, r24
    2ea6:	26 81       	ldd	r18, Z+6	; 0x06
    2ea8:	37 81       	ldd	r19, Z+7	; 0x07
    2eaa:	2f 5f       	subi	r18, 0xFF	; 255
    2eac:	3f 4f       	sbci	r19, 0xFF	; 255
    2eae:	26 83       	std	Z+6, r18	; 0x06
    2eb0:	37 83       	std	Z+7, r19	; 0x07
    2eb2:	10 c0       	rjmp	.+32     	; 0x2ed4 <fputc+0x66>
    2eb4:	eb 01       	movw	r28, r22
    2eb6:	09 2f       	mov	r16, r25
    2eb8:	18 2f       	mov	r17, r24
    2eba:	00 84       	ldd	r0, Z+8	; 0x08
    2ebc:	f1 85       	ldd	r31, Z+9	; 0x09
    2ebe:	e0 2d       	mov	r30, r0
    2ec0:	19 95       	eicall
    2ec2:	89 2b       	or	r24, r25
    2ec4:	e1 f6       	brne	.-72     	; 0x2e7e <fputc+0x10>
    2ec6:	8e 81       	ldd	r24, Y+6	; 0x06
    2ec8:	9f 81       	ldd	r25, Y+7	; 0x07
    2eca:	01 96       	adiw	r24, 0x01	; 1
    2ecc:	8e 83       	std	Y+6, r24	; 0x06
    2ece:	9f 83       	std	Y+7, r25	; 0x07
    2ed0:	81 2f       	mov	r24, r17
    2ed2:	90 2f       	mov	r25, r16
    2ed4:	df 91       	pop	r29
    2ed6:	cf 91       	pop	r28
    2ed8:	1f 91       	pop	r17
    2eda:	0f 91       	pop	r16
    2edc:	08 95       	ret

00002ede <__ultoa_invert>:
    2ede:	fa 01       	movw	r30, r20
    2ee0:	aa 27       	eor	r26, r26
    2ee2:	28 30       	cpi	r18, 0x08	; 8
    2ee4:	51 f1       	breq	.+84     	; 0x2f3a <__ultoa_invert+0x5c>
    2ee6:	20 31       	cpi	r18, 0x10	; 16
    2ee8:	81 f1       	breq	.+96     	; 0x2f4a <__ultoa_invert+0x6c>
    2eea:	e8 94       	clt
    2eec:	6f 93       	push	r22
    2eee:	6e 7f       	andi	r22, 0xFE	; 254
    2ef0:	6e 5f       	subi	r22, 0xFE	; 254
    2ef2:	7f 4f       	sbci	r23, 0xFF	; 255
    2ef4:	8f 4f       	sbci	r24, 0xFF	; 255
    2ef6:	9f 4f       	sbci	r25, 0xFF	; 255
    2ef8:	af 4f       	sbci	r26, 0xFF	; 255
    2efa:	b1 e0       	ldi	r27, 0x01	; 1
    2efc:	3e d0       	rcall	.+124    	; 0x2f7a <__ultoa_invert+0x9c>
    2efe:	b4 e0       	ldi	r27, 0x04	; 4
    2f00:	3c d0       	rcall	.+120    	; 0x2f7a <__ultoa_invert+0x9c>
    2f02:	67 0f       	add	r22, r23
    2f04:	78 1f       	adc	r23, r24
    2f06:	89 1f       	adc	r24, r25
    2f08:	9a 1f       	adc	r25, r26
    2f0a:	a1 1d       	adc	r26, r1
    2f0c:	68 0f       	add	r22, r24
    2f0e:	79 1f       	adc	r23, r25
    2f10:	8a 1f       	adc	r24, r26
    2f12:	91 1d       	adc	r25, r1
    2f14:	a1 1d       	adc	r26, r1
    2f16:	6a 0f       	add	r22, r26
    2f18:	71 1d       	adc	r23, r1
    2f1a:	81 1d       	adc	r24, r1
    2f1c:	91 1d       	adc	r25, r1
    2f1e:	a1 1d       	adc	r26, r1
    2f20:	20 d0       	rcall	.+64     	; 0x2f62 <__ultoa_invert+0x84>
    2f22:	09 f4       	brne	.+2      	; 0x2f26 <__ultoa_invert+0x48>
    2f24:	68 94       	set
    2f26:	3f 91       	pop	r19
    2f28:	2a e0       	ldi	r18, 0x0A	; 10
    2f2a:	26 9f       	mul	r18, r22
    2f2c:	11 24       	eor	r1, r1
    2f2e:	30 19       	sub	r19, r0
    2f30:	30 5d       	subi	r19, 0xD0	; 208
    2f32:	31 93       	st	Z+, r19
    2f34:	de f6       	brtc	.-74     	; 0x2eec <__ultoa_invert+0xe>
    2f36:	cf 01       	movw	r24, r30
    2f38:	08 95       	ret
    2f3a:	46 2f       	mov	r20, r22
    2f3c:	47 70       	andi	r20, 0x07	; 7
    2f3e:	40 5d       	subi	r20, 0xD0	; 208
    2f40:	41 93       	st	Z+, r20
    2f42:	b3 e0       	ldi	r27, 0x03	; 3
    2f44:	0f d0       	rcall	.+30     	; 0x2f64 <__ultoa_invert+0x86>
    2f46:	c9 f7       	brne	.-14     	; 0x2f3a <__ultoa_invert+0x5c>
    2f48:	f6 cf       	rjmp	.-20     	; 0x2f36 <__ultoa_invert+0x58>
    2f4a:	46 2f       	mov	r20, r22
    2f4c:	4f 70       	andi	r20, 0x0F	; 15
    2f4e:	40 5d       	subi	r20, 0xD0	; 208
    2f50:	4a 33       	cpi	r20, 0x3A	; 58
    2f52:	18 f0       	brcs	.+6      	; 0x2f5a <__ultoa_invert+0x7c>
    2f54:	49 5d       	subi	r20, 0xD9	; 217
    2f56:	31 fd       	sbrc	r19, 1
    2f58:	40 52       	subi	r20, 0x20	; 32
    2f5a:	41 93       	st	Z+, r20
    2f5c:	02 d0       	rcall	.+4      	; 0x2f62 <__ultoa_invert+0x84>
    2f5e:	a9 f7       	brne	.-22     	; 0x2f4a <__ultoa_invert+0x6c>
    2f60:	ea cf       	rjmp	.-44     	; 0x2f36 <__ultoa_invert+0x58>
    2f62:	b4 e0       	ldi	r27, 0x04	; 4
    2f64:	a6 95       	lsr	r26
    2f66:	97 95       	ror	r25
    2f68:	87 95       	ror	r24
    2f6a:	77 95       	ror	r23
    2f6c:	67 95       	ror	r22
    2f6e:	ba 95       	dec	r27
    2f70:	c9 f7       	brne	.-14     	; 0x2f64 <__ultoa_invert+0x86>
    2f72:	00 97       	sbiw	r24, 0x00	; 0
    2f74:	61 05       	cpc	r22, r1
    2f76:	71 05       	cpc	r23, r1
    2f78:	08 95       	ret
    2f7a:	9b 01       	movw	r18, r22
    2f7c:	ac 01       	movw	r20, r24
    2f7e:	0a 2e       	mov	r0, r26
    2f80:	06 94       	lsr	r0
    2f82:	57 95       	ror	r21
    2f84:	47 95       	ror	r20
    2f86:	37 95       	ror	r19
    2f88:	27 95       	ror	r18
    2f8a:	ba 95       	dec	r27
    2f8c:	c9 f7       	brne	.-14     	; 0x2f80 <__ultoa_invert+0xa2>
    2f8e:	62 0f       	add	r22, r18
    2f90:	73 1f       	adc	r23, r19
    2f92:	84 1f       	adc	r24, r20
    2f94:	95 1f       	adc	r25, r21
    2f96:	a0 1d       	adc	r26, r0
    2f98:	08 95       	ret

00002f9a <_exit>:
    2f9a:	f8 94       	cli

00002f9c <__stop_program>:
    2f9c:	ff cf       	rjmp	.-2      	; 0x2f9c <__stop_program>
